
Mobile_controlHome.elf:     file format elf32-avr

Sections:
Idx Name          Size      VMA       LMA       File off  Algn
  0 .text         000011b6  00000000  00000000  00000094  2**1
                  CONTENTS, ALLOC, LOAD, READONLY, CODE
  1 .data         0000015e  00800060  000011b6  0000124a  2**0
                  CONTENTS, ALLOC, LOAD, DATA
  2 .bss          00000011  008001be  008001be  000013a8  2**0
                  ALLOC

Disassembly of section .text:

00000000 <__vectors>:
       0:	0c 94 2a 00 	jmp	0x54	; 0x54 <__ctors_end>
       4:	0c 94 47 00 	jmp	0x8e	; 0x8e <__bad_interrupt>
       8:	0c 94 47 00 	jmp	0x8e	; 0x8e <__bad_interrupt>
       c:	0c 94 47 00 	jmp	0x8e	; 0x8e <__bad_interrupt>
      10:	0c 94 47 00 	jmp	0x8e	; 0x8e <__bad_interrupt>
      14:	0c 94 47 00 	jmp	0x8e	; 0x8e <__bad_interrupt>
      18:	0c 94 eb 01 	jmp	0x3d6	; 0x3d6 <__vector_6>
      1c:	0c 94 47 00 	jmp	0x8e	; 0x8e <__bad_interrupt>
      20:	0c 94 47 00 	jmp	0x8e	; 0x8e <__bad_interrupt>
      24:	0c 94 47 00 	jmp	0x8e	; 0x8e <__bad_interrupt>
      28:	0c 94 16 01 	jmp	0x22c	; 0x22c <__vector_10>
      2c:	0c 94 47 00 	jmp	0x8e	; 0x8e <__bad_interrupt>
      30:	0c 94 47 00 	jmp	0x8e	; 0x8e <__bad_interrupt>
      34:	0c 94 8e 00 	jmp	0x11c	; 0x11c <__vector_13>
      38:	0c 94 c1 00 	jmp	0x182	; 0x182 <__vector_14>
      3c:	0c 94 47 00 	jmp	0x8e	; 0x8e <__bad_interrupt>
      40:	0c 94 f0 04 	jmp	0x9e0	; 0x9e0 <__vector_16>
      44:	0c 94 47 00 	jmp	0x8e	; 0x8e <__bad_interrupt>
      48:	0c 94 47 00 	jmp	0x8e	; 0x8e <__bad_interrupt>
      4c:	0c 94 47 00 	jmp	0x8e	; 0x8e <__bad_interrupt>
      50:	0c 94 47 00 	jmp	0x8e	; 0x8e <__bad_interrupt>

00000054 <__ctors_end>:
      54:	11 24       	eor	r1, r1
      56:	1f be       	out	0x3f, r1	; 63
      58:	cf e5       	ldi	r28, 0x5F	; 95
      5a:	d8 e0       	ldi	r29, 0x08	; 8
      5c:	de bf       	out	0x3e, r29	; 62
      5e:	cd bf       	out	0x3d, r28	; 61

00000060 <__do_copy_data>:
      60:	11 e0       	ldi	r17, 0x01	; 1
      62:	a0 e6       	ldi	r26, 0x60	; 96
      64:	b0 e0       	ldi	r27, 0x00	; 0
      66:	e6 eb       	ldi	r30, 0xB6	; 182
      68:	f1 e1       	ldi	r31, 0x11	; 17
      6a:	02 c0       	rjmp	.+4      	; 0x70 <.do_copy_data_start>

0000006c <.do_copy_data_loop>:
      6c:	05 90       	lpm	r0, Z+
      6e:	0d 92       	st	X+, r0

00000070 <.do_copy_data_start>:
      70:	ae 3b       	cpi	r26, 0xBE	; 190
      72:	b1 07       	cpc	r27, r17
      74:	d9 f7       	brne	.-10     	; 0x6c <.do_copy_data_loop>

00000076 <__do_clear_bss>:
      76:	11 e0       	ldi	r17, 0x01	; 1
      78:	ae eb       	ldi	r26, 0xBE	; 190
      7a:	b1 e0       	ldi	r27, 0x01	; 1
      7c:	01 c0       	rjmp	.+2      	; 0x80 <.do_clear_bss_start>

0000007e <.do_clear_bss_loop>:
      7e:	1d 92       	st	X+, r1

00000080 <.do_clear_bss_start>:
      80:	af 3c       	cpi	r26, 0xCF	; 207
      82:	b1 07       	cpc	r27, r17
      84:	e1 f7       	brne	.-8      	; 0x7e <.do_clear_bss_loop>
      86:	0e 94 49 08 	call	0x1092	; 0x1092 <main>
      8a:	0c 94 d9 08 	jmp	0x11b2	; 0x11b2 <_exit>

0000008e <__bad_interrupt>:
      8e:	0c 94 00 00 	jmp	0	; 0x0 <__vectors>

00000092 <UART_init>:
      92:	86 e8       	ldi	r24, 0x86	; 134
      94:	80 bd       	out	0x20, r24	; 32
      96:	54 9a       	sbi	0x0a, 4	; 10
      98:	53 9a       	sbi	0x0a, 3	; 10
      9a:	83 e3       	ldi	r24, 0x33	; 51
      9c:	89 b9       	out	0x09, r24	; 9
      9e:	08 95       	ret

000000a0 <UART_voidSend>:
      a0:	5d 9b       	sbis	0x0b, 5	; 11
      a2:	fe cf       	rjmp	.-4      	; 0xa0 <UART_voidSend>
      a4:	8c b9       	out	0x0c, r24	; 12
      a6:	08 95       	ret

000000a8 <UART_u8Recive>:
      a8:	5f 9b       	sbis	0x0b, 7	; 11
      aa:	fe cf       	rjmp	.-4      	; 0xa8 <UART_u8Recive>
      ac:	8c b1       	in	r24, 0x0c	; 12
      ae:	08 95       	ret

000000b0 <UART_voidSendString>:
      b0:	20 e0       	ldi	r18, 0x00	; 0
      b2:	04 c0       	rjmp	.+8      	; 0xbc <UART_voidSendString+0xc>
      b4:	5d 9b       	sbis	0x0b, 5	; 11
      b6:	fe cf       	rjmp	.-4      	; 0xb4 <UART_voidSendString+0x4>
      b8:	ec b9       	out	0x0c, r30	; 12
      ba:	2f 5f       	subi	r18, 0xFF	; 255
      bc:	fc 01       	movw	r30, r24
      be:	e2 0f       	add	r30, r18
      c0:	f1 1d       	adc	r31, r1
      c2:	e0 81       	ld	r30, Z
      c4:	ee 23       	and	r30, r30
      c6:	b1 f7       	brne	.-20     	; 0xb4 <UART_voidSendString+0x4>
      c8:	08 95       	ret

000000ca <UART_ReceiveString>:
      ca:	dc 01       	movw	r26, r24
      cc:	5f 9b       	sbis	0x0b, 7	; 11
      ce:	fe cf       	rjmp	.-4      	; 0xcc <UART_ReceiveString+0x2>
      d0:	8c b1       	in	r24, 0x0c	; 12
      d2:	8c 93       	st	X, r24
      d4:	90 e0       	ldi	r25, 0x00	; 0
      d6:	08 c0       	rjmp	.+16     	; 0xe8 <UART_ReceiveString+0x1e>
      d8:	9f 5f       	subi	r25, 0xFF	; 255
      da:	5f 9b       	sbis	0x0b, 7	; 11
      dc:	fe cf       	rjmp	.-4      	; 0xda <UART_ReceiveString+0x10>
      de:	8c b1       	in	r24, 0x0c	; 12
      e0:	fd 01       	movw	r30, r26
      e2:	e9 0f       	add	r30, r25
      e4:	f1 1d       	adc	r31, r1
      e6:	80 83       	st	Z, r24
      e8:	fd 01       	movw	r30, r26
      ea:	e9 0f       	add	r30, r25
      ec:	f1 1d       	adc	r31, r1
      ee:	80 81       	ld	r24, Z
      f0:	83 32       	cpi	r24, 0x23	; 35
      f2:	91 f7       	brne	.-28     	; 0xd8 <UART_ReceiveString+0xe>
      f4:	10 82       	st	Z, r1
      f6:	08 95       	ret

000000f8 <UART_u8RecAsynch>:
      f8:	00 97       	sbiw	r24, 0x00	; 0
      fa:	69 f0       	breq	.+26     	; 0x116 <UART_u8RecAsynch+0x1e>
      fc:	61 15       	cp	r22, r1
      fe:	71 05       	cpc	r23, r1
     100:	51 f0       	breq	.+20     	; 0x116 <UART_u8RecAsynch+0x1e>
     102:	90 93 bf 01 	sts	0x01BF, r25
     106:	80 93 be 01 	sts	0x01BE, r24
     10a:	70 93 c4 01 	sts	0x01C4, r23
     10e:	60 93 c3 01 	sts	0x01C3, r22
     112:	81 e0       	ldi	r24, 0x01	; 1
     114:	01 c0       	rjmp	.+2      	; 0x118 <UART_u8RecAsynch+0x20>
     116:	80 e0       	ldi	r24, 0x00	; 0
     118:	57 9a       	sbi	0x0a, 7	; 10
     11a:	08 95       	ret

0000011c <__vector_13>:
     11c:	1f 92       	push	r1
     11e:	0f 92       	push	r0
     120:	0f b6       	in	r0, 0x3f	; 63
     122:	0f 92       	push	r0
     124:	11 24       	eor	r1, r1
     126:	2f 93       	push	r18
     128:	3f 93       	push	r19
     12a:	4f 93       	push	r20
     12c:	5f 93       	push	r21
     12e:	6f 93       	push	r22
     130:	7f 93       	push	r23
     132:	8f 93       	push	r24
     134:	9f 93       	push	r25
     136:	af 93       	push	r26
     138:	bf 93       	push	r27
     13a:	ef 93       	push	r30
     13c:	ff 93       	push	r31
     13e:	80 91 be 01 	lds	r24, 0x01BE
     142:	90 91 bf 01 	lds	r25, 0x01BF
     146:	89 2b       	or	r24, r25
     148:	59 f0       	breq	.+22     	; 0x160 <__vector_13+0x44>
     14a:	8c b1       	in	r24, 0x0c	; 12
     14c:	e0 91 c3 01 	lds	r30, 0x01C3
     150:	f0 91 c4 01 	lds	r31, 0x01C4
     154:	80 83       	st	Z, r24
     156:	e0 91 be 01 	lds	r30, 0x01BE
     15a:	f0 91 bf 01 	lds	r31, 0x01BF
     15e:	09 95       	icall
     160:	ff 91       	pop	r31
     162:	ef 91       	pop	r30
     164:	bf 91       	pop	r27
     166:	af 91       	pop	r26
     168:	9f 91       	pop	r25
     16a:	8f 91       	pop	r24
     16c:	7f 91       	pop	r23
     16e:	6f 91       	pop	r22
     170:	5f 91       	pop	r21
     172:	4f 91       	pop	r20
     174:	3f 91       	pop	r19
     176:	2f 91       	pop	r18
     178:	0f 90       	pop	r0
     17a:	0f be       	out	0x3f, r0	; 63
     17c:	0f 90       	pop	r0
     17e:	1f 90       	pop	r1
     180:	18 95       	reti

00000182 <__vector_14>:
     182:	1f 92       	push	r1
     184:	0f 92       	push	r0
     186:	0f b6       	in	r0, 0x3f	; 63
     188:	0f 92       	push	r0
     18a:	11 24       	eor	r1, r1
     18c:	8f 93       	push	r24
     18e:	ef 93       	push	r30
     190:	ff 93       	push	r31
     192:	80 91 c0 01 	lds	r24, 0x01C0
     196:	e0 91 c1 01 	lds	r30, 0x01C1
     19a:	f0 91 c2 01 	lds	r31, 0x01C2
     19e:	e8 0f       	add	r30, r24
     1a0:	f1 1d       	adc	r31, r1
     1a2:	e0 81       	ld	r30, Z
     1a4:	ee 23       	and	r30, r30
     1a6:	21 f0       	breq	.+8      	; 0x1b0 <__vector_14+0x2e>
     1a8:	ec b9       	out	0x0c, r30	; 12
     1aa:	8f 5f       	subi	r24, 0xFF	; 255
     1ac:	80 93 c0 01 	sts	0x01C0, r24
     1b0:	ff 91       	pop	r31
     1b2:	ef 91       	pop	r30
     1b4:	8f 91       	pop	r24
     1b6:	0f 90       	pop	r0
     1b8:	0f be       	out	0x3f, r0	; 63
     1ba:	0f 90       	pop	r0
     1bc:	1f 90       	pop	r1
     1be:	18 95       	reti

000001c0 <UART_voidSendStringAsyhc>:
     1c0:	10 92 c0 01 	sts	0x01C0, r1
     1c4:	90 93 c2 01 	sts	0x01C2, r25
     1c8:	80 93 c1 01 	sts	0x01C1, r24
     1cc:	0e 94 76 03 	call	0x6ec	; 0x6ec <GIE_voidEnable>
     1d0:	55 9a       	sbi	0x0a, 5	; 10
     1d2:	80 91 c0 01 	lds	r24, 0x01C0
     1d6:	e0 91 c1 01 	lds	r30, 0x01C1
     1da:	f0 91 c2 01 	lds	r31, 0x01C2
     1de:	e8 0f       	add	r30, r24
     1e0:	f1 1d       	adc	r31, r1
     1e2:	e0 81       	ld	r30, Z
     1e4:	ee 23       	and	r30, r30
     1e6:	21 f0       	breq	.+8      	; 0x1f0 <UART_voidSendStringAsyhc+0x30>
     1e8:	ec b9       	out	0x0c, r30	; 12
     1ea:	8f 5f       	subi	r24, 0xFF	; 255
     1ec:	80 93 c0 01 	sts	0x01C0, r24
     1f0:	08 95       	ret

000001f2 <Timer_voidInitTimer0>:
     1f2:	83 b7       	in	r24, 0x33	; 51
     1f4:	80 64       	ori	r24, 0x40	; 64
     1f6:	83 bf       	out	0x33, r24	; 51
     1f8:	83 b7       	in	r24, 0x33	; 51
     1fa:	87 7f       	andi	r24, 0xF7	; 247
     1fc:	83 bf       	out	0x33, r24	; 51
     1fe:	8a ef       	ldi	r24, 0xFA	; 250
     200:	8c bf       	out	0x3c, r24	; 60
     202:	89 b7       	in	r24, 0x39	; 57
     204:	82 60       	ori	r24, 0x02	; 2
     206:	89 bf       	out	0x39, r24	; 57
     208:	8f b7       	in	r24, 0x3f	; 63
     20a:	80 68       	ori	r24, 0x80	; 128
     20c:	8f bf       	out	0x3f, r24	; 63
     20e:	83 b7       	in	r24, 0x33	; 51
     210:	81 60       	ori	r24, 0x01	; 1
     212:	83 bf       	out	0x33, r24	; 51
     214:	83 b7       	in	r24, 0x33	; 51
     216:	82 60       	ori	r24, 0x02	; 2
     218:	83 bf       	out	0x33, r24	; 51
     21a:	83 b7       	in	r24, 0x33	; 51
     21c:	8b 7f       	andi	r24, 0xFB	; 251
     21e:	83 bf       	out	0x33, r24	; 51
     220:	08 95       	ret

00000222 <Timer_voidSetCtc0Isr>:
     222:	90 93 c6 01 	sts	0x01C6, r25
     226:	80 93 c5 01 	sts	0x01C5, r24
     22a:	08 95       	ret

0000022c <__vector_10>:
     22c:	1f 92       	push	r1
     22e:	0f 92       	push	r0
     230:	0f b6       	in	r0, 0x3f	; 63
     232:	0f 92       	push	r0
     234:	11 24       	eor	r1, r1
     236:	2f 93       	push	r18
     238:	3f 93       	push	r19
     23a:	4f 93       	push	r20
     23c:	5f 93       	push	r21
     23e:	6f 93       	push	r22
     240:	7f 93       	push	r23
     242:	8f 93       	push	r24
     244:	9f 93       	push	r25
     246:	af 93       	push	r26
     248:	bf 93       	push	r27
     24a:	ef 93       	push	r30
     24c:	ff 93       	push	r31
     24e:	e0 91 c5 01 	lds	r30, 0x01C5
     252:	f0 91 c6 01 	lds	r31, 0x01C6
     256:	30 97       	sbiw	r30, 0x00	; 0
     258:	09 f0       	breq	.+2      	; 0x25c <__vector_10+0x30>
     25a:	09 95       	icall
     25c:	ff 91       	pop	r31
     25e:	ef 91       	pop	r30
     260:	bf 91       	pop	r27
     262:	af 91       	pop	r26
     264:	9f 91       	pop	r25
     266:	8f 91       	pop	r24
     268:	7f 91       	pop	r23
     26a:	6f 91       	pop	r22
     26c:	5f 91       	pop	r21
     26e:	4f 91       	pop	r20
     270:	3f 91       	pop	r19
     272:	2f 91       	pop	r18
     274:	0f 90       	pop	r0
     276:	0f be       	out	0x3f, r0	; 63
     278:	0f 90       	pop	r0
     27a:	1f 90       	pop	r1
     27c:	18 95       	reti

0000027e <PWM_voidInit0>:
     27e:	83 b7       	in	r24, 0x33	; 51
     280:	80 64       	ori	r24, 0x40	; 64
     282:	83 bf       	out	0x33, r24	; 51
     284:	83 b7       	in	r24, 0x33	; 51
     286:	87 7f       	andi	r24, 0xF7	; 247
     288:	83 bf       	out	0x33, r24	; 51
     28a:	83 b7       	in	r24, 0x33	; 51
     28c:	80 62       	ori	r24, 0x20	; 32
     28e:	83 bf       	out	0x33, r24	; 51
     290:	83 b7       	in	r24, 0x33	; 51
     292:	8f 7e       	andi	r24, 0xEF	; 239
     294:	83 bf       	out	0x33, r24	; 51
     296:	83 b7       	in	r24, 0x33	; 51
     298:	8e 7f       	andi	r24, 0xFE	; 254
     29a:	83 bf       	out	0x33, r24	; 51
     29c:	83 b7       	in	r24, 0x33	; 51
     29e:	82 60       	ori	r24, 0x02	; 2
     2a0:	83 bf       	out	0x33, r24	; 51
     2a2:	83 b7       	in	r24, 0x33	; 51
     2a4:	8b 7f       	andi	r24, 0xFB	; 251
     2a6:	83 bf       	out	0x33, r24	; 51
     2a8:	08 95       	ret

000002aa <PWM_voidSetDutyCycle>:
     2aa:	8c bf       	out	0x3c, r24	; 60
     2ac:	08 95       	ret

000002ae <PWM_voidInitTimer1>:
     2ae:	8f b5       	in	r24, 0x2f	; 47
     2b0:	82 60       	ori	r24, 0x02	; 2
     2b2:	8f bd       	out	0x2f, r24	; 47
     2b4:	8f b5       	in	r24, 0x2f	; 47
     2b6:	8e 7f       	andi	r24, 0xFE	; 254
     2b8:	8f bd       	out	0x2f, r24	; 47
     2ba:	8e b5       	in	r24, 0x2e	; 46
     2bc:	88 60       	ori	r24, 0x08	; 8
     2be:	8e bd       	out	0x2e, r24	; 46
     2c0:	8e b5       	in	r24, 0x2e	; 46
     2c2:	80 61       	ori	r24, 0x10	; 16
     2c4:	8e bd       	out	0x2e, r24	; 46
     2c6:	8f b5       	in	r24, 0x2f	; 47
     2c8:	80 68       	ori	r24, 0x80	; 128
     2ca:	8f bd       	out	0x2f, r24	; 47
     2cc:	8f b5       	in	r24, 0x2f	; 47
     2ce:	8f 7b       	andi	r24, 0xBF	; 191
     2d0:	8f bd       	out	0x2f, r24	; 47
     2d2:	8e b5       	in	r24, 0x2e	; 46
     2d4:	8e 7f       	andi	r24, 0xFE	; 254
     2d6:	8e bd       	out	0x2e, r24	; 46
     2d8:	8e b5       	in	r24, 0x2e	; 46
     2da:	82 60       	ori	r24, 0x02	; 2
     2dc:	8e bd       	out	0x2e, r24	; 46
     2de:	8e b5       	in	r24, 0x2e	; 46
     2e0:	8b 7f       	andi	r24, 0xFB	; 251
     2e2:	8e bd       	out	0x2e, r24	; 46
     2e4:	80 e2       	ldi	r24, 0x20	; 32
     2e6:	9e e4       	ldi	r25, 0x4E	; 78
     2e8:	97 bd       	out	0x27, r25	; 39
     2ea:	86 bd       	out	0x26, r24	; 38
     2ec:	08 95       	ret

000002ee <PWM_voidSetDutyCycle1>:
     2ee:	9b bd       	out	0x2b, r25	; 43
     2f0:	8a bd       	out	0x2a, r24	; 42
     2f2:	08 95       	ret

000002f4 <map>:
     2f4:	2f 92       	push	r2
     2f6:	3f 92       	push	r3
     2f8:	4f 92       	push	r4
     2fa:	5f 92       	push	r5
     2fc:	6f 92       	push	r6
     2fe:	7f 92       	push	r7
     300:	8f 92       	push	r8
     302:	9f 92       	push	r9
     304:	af 92       	push	r10
     306:	bf 92       	push	r11
     308:	cf 92       	push	r12
     30a:	df 92       	push	r13
     30c:	ef 92       	push	r14
     30e:	ff 92       	push	r15
     310:	0f 93       	push	r16
     312:	1f 93       	push	r17
     314:	df 93       	push	r29
     316:	cf 93       	push	r28
     318:	cd b7       	in	r28, 0x3d	; 61
     31a:	de b7       	in	r29, 0x3e	; 62
     31c:	3b 01       	movw	r6, r22
     31e:	4c 01       	movw	r8, r24
     320:	19 01       	movw	r2, r18
     322:	2a 01       	movw	r4, r20
     324:	a8 01       	movw	r20, r16
     326:	97 01       	movw	r18, r14
     328:	6d 89       	ldd	r22, Y+21	; 0x15
     32a:	7e 89       	ldd	r23, Y+22	; 0x16
     32c:	8f 89       	ldd	r24, Y+23	; 0x17
     32e:	98 8d       	ldd	r25, Y+24	; 0x18
     330:	62 19       	sub	r22, r2
     332:	73 09       	sbc	r23, r3
     334:	84 09       	sbc	r24, r4
     336:	95 09       	sbc	r25, r5
     338:	2a 19       	sub	r18, r10
     33a:	3b 09       	sbc	r19, r11
     33c:	4c 09       	sbc	r20, r12
     33e:	5d 09       	sbc	r21, r13
     340:	0e 94 60 08 	call	0x10c0	; 0x10c0 <__mulsi3>
     344:	62 18       	sub	r6, r2
     346:	73 08       	sbc	r7, r3
     348:	84 08       	sbc	r8, r4
     34a:	95 08       	sbc	r9, r5
     34c:	a4 01       	movw	r20, r8
     34e:	93 01       	movw	r18, r6
     350:	0e 94 93 08 	call	0x1126	; 0x1126 <__divmodsi4>
     354:	79 01       	movw	r14, r18
     356:	8a 01       	movw	r16, r20
     358:	ea 0c       	add	r14, r10
     35a:	fb 1c       	adc	r15, r11
     35c:	0c 1d       	adc	r16, r12
     35e:	1d 1d       	adc	r17, r13
     360:	b7 01       	movw	r22, r14
     362:	c8 01       	movw	r24, r16
     364:	cf 91       	pop	r28
     366:	df 91       	pop	r29
     368:	1f 91       	pop	r17
     36a:	0f 91       	pop	r16
     36c:	ff 90       	pop	r15
     36e:	ef 90       	pop	r14
     370:	df 90       	pop	r13
     372:	cf 90       	pop	r12
     374:	bf 90       	pop	r11
     376:	af 90       	pop	r10
     378:	9f 90       	pop	r9
     37a:	8f 90       	pop	r8
     37c:	7f 90       	pop	r7
     37e:	6f 90       	pop	r6
     380:	5f 90       	pop	r5
     382:	4f 90       	pop	r4
     384:	3f 90       	pop	r3
     386:	2f 90       	pop	r2
     388:	08 95       	ret

0000038a <ICU_voidInit>:
     38a:	8e b5       	in	r24, 0x2e	; 46
     38c:	80 64       	ori	r24, 0x40	; 64
     38e:	8e bd       	out	0x2e, r24	; 46
     390:	89 b7       	in	r24, 0x39	; 57
     392:	80 62       	ori	r24, 0x20	; 32
     394:	89 bf       	out	0x39, r24	; 57
     396:	8e b5       	in	r24, 0x2e	; 46
     398:	8e 7f       	andi	r24, 0xFE	; 254
     39a:	8e bd       	out	0x2e, r24	; 46
     39c:	8e b5       	in	r24, 0x2e	; 46
     39e:	82 60       	ori	r24, 0x02	; 2
     3a0:	8e bd       	out	0x2e, r24	; 46
     3a2:	8e b5       	in	r24, 0x2e	; 46
     3a4:	8b 7f       	andi	r24, 0xFB	; 251
     3a6:	8e bd       	out	0x2e, r24	; 46
     3a8:	08 95       	ret

000003aa <ICU_voidSetSenseControl>:
     3aa:	88 23       	and	r24, r24
     3ac:	19 f4       	brne	.+6      	; 0x3b4 <ICU_voidSetSenseControl+0xa>
     3ae:	8e b5       	in	r24, 0x2e	; 46
     3b0:	8f 7b       	andi	r24, 0xBF	; 191
     3b2:	02 c0       	rjmp	.+4      	; 0x3b8 <ICU_voidSetSenseControl+0xe>
     3b4:	8e b5       	in	r24, 0x2e	; 46
     3b6:	80 64       	ori	r24, 0x40	; 64
     3b8:	8e bd       	out	0x2e, r24	; 46
     3ba:	08 95       	ret

000003bc <ICU_u16ReadValue>:
     3bc:	26 b5       	in	r18, 0x26	; 38
     3be:	37 b5       	in	r19, 0x27	; 39
     3c0:	c9 01       	movw	r24, r18
     3c2:	08 95       	ret

000003c4 <ICU_voidSetCallBack>:
     3c4:	90 93 c8 01 	sts	0x01C8, r25
     3c8:	80 93 c7 01 	sts	0x01C7, r24
     3cc:	08 95       	ret

000003ce <ICU_voidDisableInterrupt>:
     3ce:	89 b7       	in	r24, 0x39	; 57
     3d0:	8f 7d       	andi	r24, 0xDF	; 223
     3d2:	89 bf       	out	0x39, r24	; 57
     3d4:	08 95       	ret

000003d6 <__vector_6>:
     3d6:	1f 92       	push	r1
     3d8:	0f 92       	push	r0
     3da:	0f b6       	in	r0, 0x3f	; 63
     3dc:	0f 92       	push	r0
     3de:	11 24       	eor	r1, r1
     3e0:	2f 93       	push	r18
     3e2:	3f 93       	push	r19
     3e4:	4f 93       	push	r20
     3e6:	5f 93       	push	r21
     3e8:	6f 93       	push	r22
     3ea:	7f 93       	push	r23
     3ec:	8f 93       	push	r24
     3ee:	9f 93       	push	r25
     3f0:	af 93       	push	r26
     3f2:	bf 93       	push	r27
     3f4:	ef 93       	push	r30
     3f6:	ff 93       	push	r31
     3f8:	e0 91 c7 01 	lds	r30, 0x01C7
     3fc:	f0 91 c8 01 	lds	r31, 0x01C8
     400:	30 97       	sbiw	r30, 0x00	; 0
     402:	09 f0       	breq	.+2      	; 0x406 <__vector_6+0x30>
     404:	09 95       	icall
     406:	ff 91       	pop	r31
     408:	ef 91       	pop	r30
     40a:	bf 91       	pop	r27
     40c:	af 91       	pop	r26
     40e:	9f 91       	pop	r25
     410:	8f 91       	pop	r24
     412:	7f 91       	pop	r23
     414:	6f 91       	pop	r22
     416:	5f 91       	pop	r21
     418:	4f 91       	pop	r20
     41a:	3f 91       	pop	r19
     41c:	2f 91       	pop	r18
     41e:	0f 90       	pop	r0
     420:	0f be       	out	0x3f, r0	; 63
     422:	0f 90       	pop	r0
     424:	1f 90       	pop	r1
     426:	18 95       	reti

00000428 <LCD_voidsenddata>:
     428:	1f 93       	push	r17
     42a:	18 2f       	mov	r17, r24
     42c:	83 e0       	ldi	r24, 0x03	; 3
     42e:	62 e0       	ldi	r22, 0x02	; 2
     430:	41 e0       	ldi	r20, 0x01	; 1
     432:	0e 94 f1 03 	call	0x7e2	; 0x7e2 <Dio_voidSetPinValue>
     436:	83 e0       	ldi	r24, 0x03	; 3
     438:	63 e0       	ldi	r22, 0x03	; 3
     43a:	40 e0       	ldi	r20, 0x00	; 0
     43c:	0e 94 f1 03 	call	0x7e2	; 0x7e2 <Dio_voidSetPinValue>
     440:	82 e0       	ldi	r24, 0x02	; 2
     442:	61 2f       	mov	r22, r17
     444:	0e 94 ae 04 	call	0x95c	; 0x95c <Dio_voidSetPortValue>
     448:	83 e0       	ldi	r24, 0x03	; 3
     44a:	64 e0       	ldi	r22, 0x04	; 4
     44c:	41 e0       	ldi	r20, 0x01	; 1
     44e:	0e 94 f1 03 	call	0x7e2	; 0x7e2 <Dio_voidSetPinValue>
     452:	80 ea       	ldi	r24, 0xA0	; 160
     454:	9f e0       	ldi	r25, 0x0F	; 15
     456:	01 97       	sbiw	r24, 0x01	; 1
     458:	f1 f7       	brne	.-4      	; 0x456 <LCD_voidsenddata+0x2e>
     45a:	83 e0       	ldi	r24, 0x03	; 3
     45c:	64 e0       	ldi	r22, 0x04	; 4
     45e:	40 e0       	ldi	r20, 0x00	; 0
     460:	0e 94 f1 03 	call	0x7e2	; 0x7e2 <Dio_voidSetPinValue>
     464:	1f 91       	pop	r17
     466:	08 95       	ret

00000468 <LCD_voidWriteNumber>:
     468:	6f 92       	push	r6
     46a:	7f 92       	push	r7
     46c:	9f 92       	push	r9
     46e:	af 92       	push	r10
     470:	bf 92       	push	r11
     472:	cf 92       	push	r12
     474:	df 92       	push	r13
     476:	ef 92       	push	r14
     478:	ff 92       	push	r15
     47a:	0f 93       	push	r16
     47c:	1f 93       	push	r17
     47e:	df 93       	push	r29
     480:	cf 93       	push	r28
     482:	cd b7       	in	r28, 0x3d	; 61
     484:	de b7       	in	r29, 0x3e	; 62
     486:	2a 97       	sbiw	r28, 0x0a	; 10
     488:	0f b6       	in	r0, 0x3f	; 63
     48a:	f8 94       	cli
     48c:	de bf       	out	0x3e, r29	; 62
     48e:	0f be       	out	0x3f, r0	; 63
     490:	cd bf       	out	0x3d, r28	; 61
     492:	5b 01       	movw	r10, r22
     494:	6c 01       	movw	r12, r24
     496:	7b 01       	movw	r14, r22
     498:	8c 01       	movw	r16, r24
     49a:	97 ff       	sbrs	r25, 7
     49c:	07 c0       	rjmp	.+14     	; 0x4ac <LCD_voidWriteNumber+0x44>
     49e:	ee 24       	eor	r14, r14
     4a0:	ff 24       	eor	r15, r15
     4a2:	87 01       	movw	r16, r14
     4a4:	e6 1a       	sub	r14, r22
     4a6:	f7 0a       	sbc	r15, r23
     4a8:	08 0b       	sbc	r16, r24
     4aa:	19 0b       	sbc	r17, r25
     4ac:	99 24       	eor	r9, r9
     4ae:	3e 01       	movw	r6, r28
     4b0:	08 94       	sec
     4b2:	61 1c       	adc	r6, r1
     4b4:	71 1c       	adc	r7, r1
     4b6:	1a c0       	rjmp	.+52     	; 0x4ec <LCD_voidWriteNumber+0x84>
     4b8:	c8 01       	movw	r24, r16
     4ba:	b7 01       	movw	r22, r14
     4bc:	2a e0       	ldi	r18, 0x0A	; 10
     4be:	30 e0       	ldi	r19, 0x00	; 0
     4c0:	40 e0       	ldi	r20, 0x00	; 0
     4c2:	50 e0       	ldi	r21, 0x00	; 0
     4c4:	0e 94 93 08 	call	0x1126	; 0x1126 <__divmodsi4>
     4c8:	f3 01       	movw	r30, r6
     4ca:	e9 0d       	add	r30, r9
     4cc:	f1 1d       	adc	r31, r1
     4ce:	60 5d       	subi	r22, 0xD0	; 208
     4d0:	60 83       	st	Z, r22
     4d2:	c8 01       	movw	r24, r16
     4d4:	b7 01       	movw	r22, r14
     4d6:	2a e0       	ldi	r18, 0x0A	; 10
     4d8:	30 e0       	ldi	r19, 0x00	; 0
     4da:	40 e0       	ldi	r20, 0x00	; 0
     4dc:	50 e0       	ldi	r21, 0x00	; 0
     4de:	0e 94 93 08 	call	0x1126	; 0x1126 <__divmodsi4>
     4e2:	c9 01       	movw	r24, r18
     4e4:	da 01       	movw	r26, r20
     4e6:	7c 01       	movw	r14, r24
     4e8:	8d 01       	movw	r16, r26
     4ea:	93 94       	inc	r9
     4ec:	e1 14       	cp	r14, r1
     4ee:	f1 04       	cpc	r15, r1
     4f0:	01 05       	cpc	r16, r1
     4f2:	11 05       	cpc	r17, r1
     4f4:	09 f7       	brne	.-62     	; 0x4b8 <LCD_voidWriteNumber+0x50>
     4f6:	99 20       	and	r9, r9
     4f8:	19 f4       	brne	.+6      	; 0x500 <LCD_voidWriteNumber+0x98>
     4fa:	80 e3       	ldi	r24, 0x30	; 48
     4fc:	89 83       	std	Y+1, r24	; 0x01
     4fe:	0c c0       	rjmp	.+24     	; 0x518 <LCD_voidWriteNumber+0xb0>
     500:	1a 14       	cp	r1, r10
     502:	1b 04       	cpc	r1, r11
     504:	1c 04       	cpc	r1, r12
     506:	1d 04       	cpc	r1, r13
     508:	14 f4       	brge	.+4      	; 0x50e <LCD_voidWriteNumber+0xa6>
     50a:	9a 94       	dec	r9
     50c:	05 c0       	rjmp	.+10     	; 0x518 <LCD_voidWriteNumber+0xb0>
     50e:	fe 01       	movw	r30, r28
     510:	e9 0d       	add	r30, r9
     512:	f1 1d       	adc	r31, r1
     514:	8d e2       	ldi	r24, 0x2D	; 45
     516:	81 83       	std	Z+1, r24	; 0x01
     518:	f9 2c       	mov	r15, r9
     51a:	89 2d       	mov	r24, r9
     51c:	99 27       	eor	r25, r25
     51e:	87 fd       	sbrc	r24, 7
     520:	90 95       	com	r25
     522:	8e 01       	movw	r16, r28
     524:	0f 5f       	subi	r16, 0xFF	; 255
     526:	1f 4f       	sbci	r17, 0xFF	; 255
     528:	08 0f       	add	r16, r24
     52a:	19 1f       	adc	r17, r25
     52c:	07 c0       	rjmp	.+14     	; 0x53c <LCD_voidWriteNumber+0xd4>
     52e:	f8 01       	movw	r30, r16
     530:	80 81       	ld	r24, Z
     532:	0e 94 14 02 	call	0x428	; 0x428 <LCD_voidsenddata>
     536:	fa 94       	dec	r15
     538:	01 50       	subi	r16, 0x01	; 1
     53a:	10 40       	sbci	r17, 0x00	; 0
     53c:	f7 fe       	sbrs	r15, 7
     53e:	f7 cf       	rjmp	.-18     	; 0x52e <LCD_voidWriteNumber+0xc6>
     540:	2a 96       	adiw	r28, 0x0a	; 10
     542:	0f b6       	in	r0, 0x3f	; 63
     544:	f8 94       	cli
     546:	de bf       	out	0x3e, r29	; 62
     548:	0f be       	out	0x3f, r0	; 63
     54a:	cd bf       	out	0x3d, r28	; 61
     54c:	cf 91       	pop	r28
     54e:	df 91       	pop	r29
     550:	1f 91       	pop	r17
     552:	0f 91       	pop	r16
     554:	ff 90       	pop	r15
     556:	ef 90       	pop	r14
     558:	df 90       	pop	r13
     55a:	cf 90       	pop	r12
     55c:	bf 90       	pop	r11
     55e:	af 90       	pop	r10
     560:	9f 90       	pop	r9
     562:	7f 90       	pop	r7
     564:	6f 90       	pop	r6
     566:	08 95       	ret

00000568 <LCD_voidsendstring>:
     568:	1f 93       	push	r17
     56a:	cf 93       	push	r28
     56c:	df 93       	push	r29
     56e:	ec 01       	movw	r28, r24
     570:	10 e0       	ldi	r17, 0x00	; 0
     572:	03 c0       	rjmp	.+6      	; 0x57a <LCD_voidsendstring+0x12>
     574:	0e 94 14 02 	call	0x428	; 0x428 <LCD_voidsenddata>
     578:	1f 5f       	subi	r17, 0xFF	; 255
     57a:	fe 01       	movw	r30, r28
     57c:	e1 0f       	add	r30, r17
     57e:	f1 1d       	adc	r31, r1
     580:	80 81       	ld	r24, Z
     582:	88 23       	and	r24, r24
     584:	b9 f7       	brne	.-18     	; 0x574 <LCD_voidsendstring+0xc>
     586:	df 91       	pop	r29
     588:	cf 91       	pop	r28
     58a:	1f 91       	pop	r17
     58c:	08 95       	ret

0000058e <LCD_voidsendcommand>:
     58e:	1f 93       	push	r17
     590:	18 2f       	mov	r17, r24
     592:	83 e0       	ldi	r24, 0x03	; 3
     594:	62 e0       	ldi	r22, 0x02	; 2
     596:	40 e0       	ldi	r20, 0x00	; 0
     598:	0e 94 f1 03 	call	0x7e2	; 0x7e2 <Dio_voidSetPinValue>
     59c:	83 e0       	ldi	r24, 0x03	; 3
     59e:	63 e0       	ldi	r22, 0x03	; 3
     5a0:	40 e0       	ldi	r20, 0x00	; 0
     5a2:	0e 94 f1 03 	call	0x7e2	; 0x7e2 <Dio_voidSetPinValue>
     5a6:	82 e0       	ldi	r24, 0x02	; 2
     5a8:	61 2f       	mov	r22, r17
     5aa:	0e 94 ae 04 	call	0x95c	; 0x95c <Dio_voidSetPortValue>
     5ae:	83 e0       	ldi	r24, 0x03	; 3
     5b0:	64 e0       	ldi	r22, 0x04	; 4
     5b2:	41 e0       	ldi	r20, 0x01	; 1
     5b4:	0e 94 f1 03 	call	0x7e2	; 0x7e2 <Dio_voidSetPinValue>
     5b8:	80 ea       	ldi	r24, 0xA0	; 160
     5ba:	9f e0       	ldi	r25, 0x0F	; 15
     5bc:	01 97       	sbiw	r24, 0x01	; 1
     5be:	f1 f7       	brne	.-4      	; 0x5bc <LCD_voidsendcommand+0x2e>
     5c0:	83 e0       	ldi	r24, 0x03	; 3
     5c2:	64 e0       	ldi	r22, 0x04	; 4
     5c4:	40 e0       	ldi	r20, 0x00	; 0
     5c6:	0e 94 f1 03 	call	0x7e2	; 0x7e2 <Dio_voidSetPinValue>
     5ca:	1f 91       	pop	r17
     5cc:	08 95       	ret

000005ce <LCD_voidclearscrean>:
     5ce:	81 e0       	ldi	r24, 0x01	; 1
     5d0:	0e 94 c7 02 	call	0x58e	; 0x58e <LCD_voidsendcommand>
     5d4:	08 95       	ret

000005d6 <LCD_voidpattern>:
     5d6:	0f 93       	push	r16
     5d8:	1f 93       	push	r17
     5da:	cf 93       	push	r28
     5dc:	df 93       	push	r29
     5de:	8b 01       	movw	r16, r22
     5e0:	88 0f       	add	r24, r24
     5e2:	88 0f       	add	r24, r24
     5e4:	88 0f       	add	r24, r24
     5e6:	80 5c       	subi	r24, 0xC0	; 192
     5e8:	0e 94 c7 02 	call	0x58e	; 0x58e <LCD_voidsendcommand>
     5ec:	c0 e0       	ldi	r28, 0x00	; 0
     5ee:	d0 e0       	ldi	r29, 0x00	; 0
     5f0:	f8 01       	movw	r30, r16
     5f2:	ec 0f       	add	r30, r28
     5f4:	fd 1f       	adc	r31, r29
     5f6:	80 81       	ld	r24, Z
     5f8:	0e 94 14 02 	call	0x428	; 0x428 <LCD_voidsenddata>
     5fc:	21 96       	adiw	r28, 0x01	; 1
     5fe:	c9 30       	cpi	r28, 0x09	; 9
     600:	d1 05       	cpc	r29, r1
     602:	b1 f7       	brne	.-20     	; 0x5f0 <LCD_voidpattern+0x1a>
     604:	82 e0       	ldi	r24, 0x02	; 2
     606:	0e 94 c7 02 	call	0x58e	; 0x58e <LCD_voidsendcommand>
     60a:	df 91       	pop	r29
     60c:	cf 91       	pop	r28
     60e:	1f 91       	pop	r17
     610:	0f 91       	pop	r16
     612:	08 95       	ret

00000614 <LCD_gotoxy>:
     614:	90 e0       	ldi	r25, 0x00	; 0
     616:	26 e0       	ldi	r18, 0x06	; 6
     618:	88 0f       	add	r24, r24
     61a:	99 1f       	adc	r25, r25
     61c:	2a 95       	dec	r18
     61e:	e1 f7       	brne	.-8      	; 0x618 <LCD_gotoxy+0x4>
     620:	86 0f       	add	r24, r22
     622:	91 1d       	adc	r25, r1
     624:	80 58       	subi	r24, 0x80	; 128
     626:	0e 94 c7 02 	call	0x58e	; 0x58e <LCD_voidsendcommand>
     62a:	08 95       	ret

0000062c <LCD_voidnameinsinusoidal>:
     62c:	ff 92       	push	r15
     62e:	0f 93       	push	r16
     630:	1f 93       	push	r17
     632:	cf 93       	push	r28
     634:	df 93       	push	r29
     636:	01 e0       	ldi	r16, 0x01	; 1
     638:	10 e0       	ldi	r17, 0x00	; 0
     63a:	ff 24       	eor	r15, r15
     63c:	f3 94       	inc	r15
     63e:	c8 ec       	ldi	r28, 0xC8	; 200
     640:	d0 e0       	ldi	r29, 0x00	; 0
     642:	0f 25       	eor	r16, r15
     644:	80 2f       	mov	r24, r16
     646:	61 2f       	mov	r22, r17
     648:	0e 94 0a 03 	call	0x614	; 0x614 <LCD_gotoxy>
     64c:	80 e6       	ldi	r24, 0x60	; 96
     64e:	90 e0       	ldi	r25, 0x00	; 0
     650:	0e 94 b4 02 	call	0x568	; 0x568 <LCD_voidsendstring>
     654:	84 ec       	ldi	r24, 0xC4	; 196
     656:	99 e0       	ldi	r25, 0x09	; 9
     658:	fe 01       	movw	r30, r28
     65a:	31 97       	sbiw	r30, 0x01	; 1
     65c:	f1 f7       	brne	.-4      	; 0x65a <LCD_voidnameinsinusoidal+0x2e>
     65e:	01 97       	sbiw	r24, 0x01	; 1
     660:	d9 f7       	brne	.-10     	; 0x658 <LCD_voidnameinsinusoidal+0x2c>
     662:	81 e0       	ldi	r24, 0x01	; 1
     664:	0e 94 c7 02 	call	0x58e	; 0x58e <LCD_voidsendcommand>
     668:	1f 5f       	subi	r17, 0xFF	; 255
     66a:	1c 30       	cpi	r17, 0x0C	; 12
     66c:	51 f7       	brne	.-44     	; 0x642 <LCD_voidnameinsinusoidal+0x16>
     66e:	df 91       	pop	r29
     670:	cf 91       	pop	r28
     672:	1f 91       	pop	r17
     674:	0f 91       	pop	r16
     676:	ff 90       	pop	r15
     678:	08 95       	ret

0000067a <LCD_voidinit>:
     67a:	0f 93       	push	r16
     67c:	1f 93       	push	r17
     67e:	82 e0       	ldi	r24, 0x02	; 2
     680:	61 e0       	ldi	r22, 0x01	; 1
     682:	0e 94 84 04 	call	0x908	; 0x908 <Dio_voidSetPortDirection>
     686:	83 e0       	ldi	r24, 0x03	; 3
     688:	62 e0       	ldi	r22, 0x02	; 2
     68a:	41 e0       	ldi	r20, 0x01	; 1
     68c:	0e 94 7e 03 	call	0x6fc	; 0x6fc <Dio_voidSetPinDirection>
     690:	83 e0       	ldi	r24, 0x03	; 3
     692:	63 e0       	ldi	r22, 0x03	; 3
     694:	41 e0       	ldi	r20, 0x01	; 1
     696:	0e 94 7e 03 	call	0x6fc	; 0x6fc <Dio_voidSetPinDirection>
     69a:	83 e0       	ldi	r24, 0x03	; 3
     69c:	64 e0       	ldi	r22, 0x04	; 4
     69e:	41 e0       	ldi	r20, 0x01	; 1
     6a0:	0e 94 7e 03 	call	0x6fc	; 0x6fc <Dio_voidSetPinDirection>
     6a4:	80 e9       	ldi	r24, 0x90	; 144
     6a6:	91 e0       	ldi	r25, 0x01	; 1
     6a8:	28 ec       	ldi	r18, 0xC8	; 200
     6aa:	30 e0       	ldi	r19, 0x00	; 0
     6ac:	f9 01       	movw	r30, r18
     6ae:	31 97       	sbiw	r30, 0x01	; 1
     6b0:	f1 f7       	brne	.-4      	; 0x6ae <LCD_voidinit+0x34>
     6b2:	01 97       	sbiw	r24, 0x01	; 1
     6b4:	d9 f7       	brne	.-10     	; 0x6ac <LCD_voidinit+0x32>
     6b6:	88 e3       	ldi	r24, 0x38	; 56
     6b8:	0e 94 c7 02 	call	0x58e	; 0x58e <LCD_voidsendcommand>
     6bc:	00 ed       	ldi	r16, 0xD0	; 208
     6be:	17 e0       	ldi	r17, 0x07	; 7
     6c0:	c8 01       	movw	r24, r16
     6c2:	01 97       	sbiw	r24, 0x01	; 1
     6c4:	f1 f7       	brne	.-4      	; 0x6c2 <LCD_voidinit+0x48>
     6c6:	8c e0       	ldi	r24, 0x0C	; 12
     6c8:	0e 94 c7 02 	call	0x58e	; 0x58e <LCD_voidsendcommand>
     6cc:	c8 01       	movw	r24, r16
     6ce:	01 97       	sbiw	r24, 0x01	; 1
     6d0:	f1 f7       	brne	.-4      	; 0x6ce <LCD_voidinit+0x54>
     6d2:	81 e0       	ldi	r24, 0x01	; 1
     6d4:	0e 94 c7 02 	call	0x58e	; 0x58e <LCD_voidsendcommand>
     6d8:	80 ea       	ldi	r24, 0xA0	; 160
     6da:	9f e0       	ldi	r25, 0x0F	; 15
     6dc:	01 97       	sbiw	r24, 0x01	; 1
     6de:	f1 f7       	brne	.-4      	; 0x6dc <LCD_voidinit+0x62>
     6e0:	86 e0       	ldi	r24, 0x06	; 6
     6e2:	0e 94 c7 02 	call	0x58e	; 0x58e <LCD_voidsendcommand>
     6e6:	1f 91       	pop	r17
     6e8:	0f 91       	pop	r16
     6ea:	08 95       	ret

000006ec <GIE_voidEnable>:
     6ec:	8f b7       	in	r24, 0x3f	; 63
     6ee:	80 68       	ori	r24, 0x80	; 128
     6f0:	8f bf       	out	0x3f, r24	; 63
     6f2:	08 95       	ret

000006f4 <GIE_voidDisable>:
     6f4:	8f b7       	in	r24, 0x3f	; 63
     6f6:	8f 77       	andi	r24, 0x7F	; 127
     6f8:	8f bf       	out	0x3f, r24	; 63
     6fa:	08 95       	ret

000006fc <Dio_voidSetPinDirection>:
     6fc:	44 23       	and	r20, r20
     6fe:	d1 f5       	brne	.+116    	; 0x774 <Dio_voidSetPinDirection+0x78>
     700:	81 30       	cpi	r24, 0x01	; 1
     702:	a1 f0       	breq	.+40     	; 0x72c <Dio_voidSetPinDirection+0x30>
     704:	81 30       	cpi	r24, 0x01	; 1
     706:	30 f0       	brcs	.+12     	; 0x714 <Dio_voidSetPinDirection+0x18>
     708:	82 30       	cpi	r24, 0x02	; 2
     70a:	e1 f0       	breq	.+56     	; 0x744 <Dio_voidSetPinDirection+0x48>
     70c:	83 30       	cpi	r24, 0x03	; 3
     70e:	09 f0       	breq	.+2      	; 0x712 <Dio_voidSetPinDirection+0x16>
     710:	67 c0       	rjmp	.+206    	; 0x7e0 <Dio_voidSetPinDirection+0xe4>
     712:	24 c0       	rjmp	.+72     	; 0x75c <Dio_voidSetPinDirection+0x60>
     714:	2a b3       	in	r18, 0x1a	; 26
     716:	81 e0       	ldi	r24, 0x01	; 1
     718:	90 e0       	ldi	r25, 0x00	; 0
     71a:	02 c0       	rjmp	.+4      	; 0x720 <Dio_voidSetPinDirection+0x24>
     71c:	88 0f       	add	r24, r24
     71e:	99 1f       	adc	r25, r25
     720:	6a 95       	dec	r22
     722:	e2 f7       	brpl	.-8      	; 0x71c <Dio_voidSetPinDirection+0x20>
     724:	80 95       	com	r24
     726:	82 23       	and	r24, r18
     728:	8a bb       	out	0x1a, r24	; 26
     72a:	08 95       	ret
     72c:	27 b3       	in	r18, 0x17	; 23
     72e:	81 e0       	ldi	r24, 0x01	; 1
     730:	90 e0       	ldi	r25, 0x00	; 0
     732:	02 c0       	rjmp	.+4      	; 0x738 <Dio_voidSetPinDirection+0x3c>
     734:	88 0f       	add	r24, r24
     736:	99 1f       	adc	r25, r25
     738:	6a 95       	dec	r22
     73a:	e2 f7       	brpl	.-8      	; 0x734 <Dio_voidSetPinDirection+0x38>
     73c:	80 95       	com	r24
     73e:	82 23       	and	r24, r18
     740:	87 bb       	out	0x17, r24	; 23
     742:	08 95       	ret
     744:	24 b3       	in	r18, 0x14	; 20
     746:	81 e0       	ldi	r24, 0x01	; 1
     748:	90 e0       	ldi	r25, 0x00	; 0
     74a:	02 c0       	rjmp	.+4      	; 0x750 <Dio_voidSetPinDirection+0x54>
     74c:	88 0f       	add	r24, r24
     74e:	99 1f       	adc	r25, r25
     750:	6a 95       	dec	r22
     752:	e2 f7       	brpl	.-8      	; 0x74c <Dio_voidSetPinDirection+0x50>
     754:	80 95       	com	r24
     756:	82 23       	and	r24, r18
     758:	84 bb       	out	0x14, r24	; 20
     75a:	08 95       	ret
     75c:	21 b3       	in	r18, 0x11	; 17
     75e:	81 e0       	ldi	r24, 0x01	; 1
     760:	90 e0       	ldi	r25, 0x00	; 0
     762:	02 c0       	rjmp	.+4      	; 0x768 <Dio_voidSetPinDirection+0x6c>
     764:	88 0f       	add	r24, r24
     766:	99 1f       	adc	r25, r25
     768:	6a 95       	dec	r22
     76a:	e2 f7       	brpl	.-8      	; 0x764 <Dio_voidSetPinDirection+0x68>
     76c:	80 95       	com	r24
     76e:	82 23       	and	r24, r18
     770:	81 bb       	out	0x11, r24	; 17
     772:	08 95       	ret
     774:	41 30       	cpi	r20, 0x01	; 1
     776:	a1 f5       	brne	.+104    	; 0x7e0 <Dio_voidSetPinDirection+0xe4>
     778:	81 30       	cpi	r24, 0x01	; 1
     77a:	91 f0       	breq	.+36     	; 0x7a0 <Dio_voidSetPinDirection+0xa4>
     77c:	81 30       	cpi	r24, 0x01	; 1
     77e:	28 f0       	brcs	.+10     	; 0x78a <Dio_voidSetPinDirection+0x8e>
     780:	82 30       	cpi	r24, 0x02	; 2
     782:	c9 f0       	breq	.+50     	; 0x7b6 <Dio_voidSetPinDirection+0xba>
     784:	83 30       	cpi	r24, 0x03	; 3
     786:	61 f5       	brne	.+88     	; 0x7e0 <Dio_voidSetPinDirection+0xe4>
     788:	21 c0       	rjmp	.+66     	; 0x7cc <Dio_voidSetPinDirection+0xd0>
     78a:	2a b3       	in	r18, 0x1a	; 26
     78c:	81 e0       	ldi	r24, 0x01	; 1
     78e:	90 e0       	ldi	r25, 0x00	; 0
     790:	02 c0       	rjmp	.+4      	; 0x796 <Dio_voidSetPinDirection+0x9a>
     792:	88 0f       	add	r24, r24
     794:	99 1f       	adc	r25, r25
     796:	6a 95       	dec	r22
     798:	e2 f7       	brpl	.-8      	; 0x792 <Dio_voidSetPinDirection+0x96>
     79a:	28 2b       	or	r18, r24
     79c:	2a bb       	out	0x1a, r18	; 26
     79e:	08 95       	ret
     7a0:	27 b3       	in	r18, 0x17	; 23
     7a2:	81 e0       	ldi	r24, 0x01	; 1
     7a4:	90 e0       	ldi	r25, 0x00	; 0
     7a6:	02 c0       	rjmp	.+4      	; 0x7ac <Dio_voidSetPinDirection+0xb0>
     7a8:	88 0f       	add	r24, r24
     7aa:	99 1f       	adc	r25, r25
     7ac:	6a 95       	dec	r22
     7ae:	e2 f7       	brpl	.-8      	; 0x7a8 <Dio_voidSetPinDirection+0xac>
     7b0:	28 2b       	or	r18, r24
     7b2:	27 bb       	out	0x17, r18	; 23
     7b4:	08 95       	ret
     7b6:	24 b3       	in	r18, 0x14	; 20
     7b8:	81 e0       	ldi	r24, 0x01	; 1
     7ba:	90 e0       	ldi	r25, 0x00	; 0
     7bc:	02 c0       	rjmp	.+4      	; 0x7c2 <Dio_voidSetPinDirection+0xc6>
     7be:	88 0f       	add	r24, r24
     7c0:	99 1f       	adc	r25, r25
     7c2:	6a 95       	dec	r22
     7c4:	e2 f7       	brpl	.-8      	; 0x7be <Dio_voidSetPinDirection+0xc2>
     7c6:	28 2b       	or	r18, r24
     7c8:	24 bb       	out	0x14, r18	; 20
     7ca:	08 95       	ret
     7cc:	21 b3       	in	r18, 0x11	; 17
     7ce:	81 e0       	ldi	r24, 0x01	; 1
     7d0:	90 e0       	ldi	r25, 0x00	; 0
     7d2:	02 c0       	rjmp	.+4      	; 0x7d8 <Dio_voidSetPinDirection+0xdc>
     7d4:	88 0f       	add	r24, r24
     7d6:	99 1f       	adc	r25, r25
     7d8:	6a 95       	dec	r22
     7da:	e2 f7       	brpl	.-8      	; 0x7d4 <Dio_voidSetPinDirection+0xd8>
     7dc:	28 2b       	or	r18, r24
     7de:	21 bb       	out	0x11, r18	; 17
     7e0:	08 95       	ret

000007e2 <Dio_voidSetPinValue>:
     7e2:	44 23       	and	r20, r20
     7e4:	d1 f5       	brne	.+116    	; 0x85a <Dio_voidSetPinValue+0x78>
     7e6:	81 30       	cpi	r24, 0x01	; 1
     7e8:	a1 f0       	breq	.+40     	; 0x812 <Dio_voidSetPinValue+0x30>
     7ea:	81 30       	cpi	r24, 0x01	; 1
     7ec:	30 f0       	brcs	.+12     	; 0x7fa <Dio_voidSetPinValue+0x18>
     7ee:	82 30       	cpi	r24, 0x02	; 2
     7f0:	e1 f0       	breq	.+56     	; 0x82a <Dio_voidSetPinValue+0x48>
     7f2:	83 30       	cpi	r24, 0x03	; 3
     7f4:	09 f0       	breq	.+2      	; 0x7f8 <Dio_voidSetPinValue+0x16>
     7f6:	67 c0       	rjmp	.+206    	; 0x8c6 <__stack+0x67>
     7f8:	24 c0       	rjmp	.+72     	; 0x842 <Dio_voidSetPinValue+0x60>
     7fa:	2b b3       	in	r18, 0x1b	; 27
     7fc:	81 e0       	ldi	r24, 0x01	; 1
     7fe:	90 e0       	ldi	r25, 0x00	; 0
     800:	02 c0       	rjmp	.+4      	; 0x806 <Dio_voidSetPinValue+0x24>
     802:	88 0f       	add	r24, r24
     804:	99 1f       	adc	r25, r25
     806:	6a 95       	dec	r22
     808:	e2 f7       	brpl	.-8      	; 0x802 <Dio_voidSetPinValue+0x20>
     80a:	80 95       	com	r24
     80c:	82 23       	and	r24, r18
     80e:	8b bb       	out	0x1b, r24	; 27
     810:	08 95       	ret
     812:	28 b3       	in	r18, 0x18	; 24
     814:	81 e0       	ldi	r24, 0x01	; 1
     816:	90 e0       	ldi	r25, 0x00	; 0
     818:	02 c0       	rjmp	.+4      	; 0x81e <Dio_voidSetPinValue+0x3c>
     81a:	88 0f       	add	r24, r24
     81c:	99 1f       	adc	r25, r25
     81e:	6a 95       	dec	r22
     820:	e2 f7       	brpl	.-8      	; 0x81a <Dio_voidSetPinValue+0x38>
     822:	80 95       	com	r24
     824:	82 23       	and	r24, r18
     826:	88 bb       	out	0x18, r24	; 24
     828:	08 95       	ret
     82a:	25 b3       	in	r18, 0x15	; 21
     82c:	81 e0       	ldi	r24, 0x01	; 1
     82e:	90 e0       	ldi	r25, 0x00	; 0
     830:	02 c0       	rjmp	.+4      	; 0x836 <Dio_voidSetPinValue+0x54>
     832:	88 0f       	add	r24, r24
     834:	99 1f       	adc	r25, r25
     836:	6a 95       	dec	r22
     838:	e2 f7       	brpl	.-8      	; 0x832 <Dio_voidSetPinValue+0x50>
     83a:	80 95       	com	r24
     83c:	82 23       	and	r24, r18
     83e:	85 bb       	out	0x15, r24	; 21
     840:	08 95       	ret
     842:	22 b3       	in	r18, 0x12	; 18
     844:	81 e0       	ldi	r24, 0x01	; 1
     846:	90 e0       	ldi	r25, 0x00	; 0
     848:	02 c0       	rjmp	.+4      	; 0x84e <Dio_voidSetPinValue+0x6c>
     84a:	88 0f       	add	r24, r24
     84c:	99 1f       	adc	r25, r25
     84e:	6a 95       	dec	r22
     850:	e2 f7       	brpl	.-8      	; 0x84a <Dio_voidSetPinValue+0x68>
     852:	80 95       	com	r24
     854:	82 23       	and	r24, r18
     856:	82 bb       	out	0x12, r24	; 18
     858:	08 95       	ret
     85a:	41 30       	cpi	r20, 0x01	; 1
     85c:	a1 f5       	brne	.+104    	; 0x8c6 <__stack+0x67>
     85e:	81 30       	cpi	r24, 0x01	; 1
     860:	91 f0       	breq	.+36     	; 0x886 <__stack+0x27>
     862:	81 30       	cpi	r24, 0x01	; 1
     864:	28 f0       	brcs	.+10     	; 0x870 <__stack+0x11>
     866:	82 30       	cpi	r24, 0x02	; 2
     868:	c9 f0       	breq	.+50     	; 0x89c <__stack+0x3d>
     86a:	83 30       	cpi	r24, 0x03	; 3
     86c:	61 f5       	brne	.+88     	; 0x8c6 <__stack+0x67>
     86e:	21 c0       	rjmp	.+66     	; 0x8b2 <__stack+0x53>
     870:	2b b3       	in	r18, 0x1b	; 27
     872:	81 e0       	ldi	r24, 0x01	; 1
     874:	90 e0       	ldi	r25, 0x00	; 0
     876:	02 c0       	rjmp	.+4      	; 0x87c <__stack+0x1d>
     878:	88 0f       	add	r24, r24
     87a:	99 1f       	adc	r25, r25
     87c:	6a 95       	dec	r22
     87e:	e2 f7       	brpl	.-8      	; 0x878 <__stack+0x19>
     880:	28 2b       	or	r18, r24
     882:	2b bb       	out	0x1b, r18	; 27
     884:	08 95       	ret
     886:	28 b3       	in	r18, 0x18	; 24
     888:	81 e0       	ldi	r24, 0x01	; 1
     88a:	90 e0       	ldi	r25, 0x00	; 0
     88c:	02 c0       	rjmp	.+4      	; 0x892 <__stack+0x33>
     88e:	88 0f       	add	r24, r24
     890:	99 1f       	adc	r25, r25
     892:	6a 95       	dec	r22
     894:	e2 f7       	brpl	.-8      	; 0x88e <__stack+0x2f>
     896:	28 2b       	or	r18, r24
     898:	28 bb       	out	0x18, r18	; 24
     89a:	08 95       	ret
     89c:	25 b3       	in	r18, 0x15	; 21
     89e:	81 e0       	ldi	r24, 0x01	; 1
     8a0:	90 e0       	ldi	r25, 0x00	; 0
     8a2:	02 c0       	rjmp	.+4      	; 0x8a8 <__stack+0x49>
     8a4:	88 0f       	add	r24, r24
     8a6:	99 1f       	adc	r25, r25
     8a8:	6a 95       	dec	r22
     8aa:	e2 f7       	brpl	.-8      	; 0x8a4 <__stack+0x45>
     8ac:	28 2b       	or	r18, r24
     8ae:	25 bb       	out	0x15, r18	; 21
     8b0:	08 95       	ret
     8b2:	22 b3       	in	r18, 0x12	; 18
     8b4:	81 e0       	ldi	r24, 0x01	; 1
     8b6:	90 e0       	ldi	r25, 0x00	; 0
     8b8:	02 c0       	rjmp	.+4      	; 0x8be <__stack+0x5f>
     8ba:	88 0f       	add	r24, r24
     8bc:	99 1f       	adc	r25, r25
     8be:	6a 95       	dec	r22
     8c0:	e2 f7       	brpl	.-8      	; 0x8ba <__stack+0x5b>
     8c2:	28 2b       	or	r18, r24
     8c4:	22 bb       	out	0x12, r18	; 18
     8c6:	08 95       	ret

000008c8 <Dio_u8GetPinValue>:
     8c8:	81 30       	cpi	r24, 0x01	; 1
     8ca:	51 f0       	breq	.+20     	; 0x8e0 <Dio_u8GetPinValue+0x18>
     8cc:	81 30       	cpi	r24, 0x01	; 1
     8ce:	30 f0       	brcs	.+12     	; 0x8dc <Dio_u8GetPinValue+0x14>
     8d0:	82 30       	cpi	r24, 0x02	; 2
     8d2:	41 f0       	breq	.+16     	; 0x8e4 <Dio_u8GetPinValue+0x1c>
     8d4:	83 30       	cpi	r24, 0x03	; 3
     8d6:	79 f0       	breq	.+30     	; 0x8f6 <Dio_u8GetPinValue+0x2e>
     8d8:	80 e0       	ldi	r24, 0x00	; 0
     8da:	08 95       	ret
     8dc:	89 b3       	in	r24, 0x19	; 25
     8de:	03 c0       	rjmp	.+6      	; 0x8e6 <Dio_u8GetPinValue+0x1e>
     8e0:	86 b3       	in	r24, 0x16	; 22
     8e2:	01 c0       	rjmp	.+2      	; 0x8e6 <Dio_u8GetPinValue+0x1e>
     8e4:	83 b3       	in	r24, 0x13	; 19
     8e6:	90 e0       	ldi	r25, 0x00	; 0
     8e8:	02 c0       	rjmp	.+4      	; 0x8ee <Dio_u8GetPinValue+0x26>
     8ea:	95 95       	asr	r25
     8ec:	87 95       	ror	r24
     8ee:	6a 95       	dec	r22
     8f0:	e2 f7       	brpl	.-8      	; 0x8ea <Dio_u8GetPinValue+0x22>
     8f2:	81 70       	andi	r24, 0x01	; 1
     8f4:	08 95       	ret
     8f6:	80 b3       	in	r24, 0x10	; 16
     8f8:	90 e0       	ldi	r25, 0x00	; 0
     8fa:	02 c0       	rjmp	.+4      	; 0x900 <Dio_u8GetPinValue+0x38>
     8fc:	95 95       	asr	r25
     8fe:	87 95       	ror	r24
     900:	6a 95       	dec	r22
     902:	e2 f7       	brpl	.-8      	; 0x8fc <Dio_u8GetPinValue+0x34>
     904:	81 70       	andi	r24, 0x01	; 1
     906:	08 95       	ret

00000908 <Dio_voidSetPortDirection>:
     908:	66 23       	and	r22, r22
     90a:	89 f4       	brne	.+34     	; 0x92e <Dio_voidSetPortDirection+0x26>
     90c:	81 30       	cpi	r24, 0x01	; 1
     90e:	49 f0       	breq	.+18     	; 0x922 <Dio_voidSetPortDirection+0x1a>
     910:	81 30       	cpi	r24, 0x01	; 1
     912:	28 f0       	brcs	.+10     	; 0x91e <Dio_voidSetPortDirection+0x16>
     914:	82 30       	cpi	r24, 0x02	; 2
     916:	39 f0       	breq	.+14     	; 0x926 <Dio_voidSetPortDirection+0x1e>
     918:	83 30       	cpi	r24, 0x03	; 3
     91a:	f9 f4       	brne	.+62     	; 0x95a <Dio_voidSetPortDirection+0x52>
     91c:	06 c0       	rjmp	.+12     	; 0x92a <Dio_voidSetPortDirection+0x22>
     91e:	1a ba       	out	0x1a, r1	; 26
     920:	08 95       	ret
     922:	17 ba       	out	0x17, r1	; 23
     924:	08 95       	ret
     926:	14 ba       	out	0x14, r1	; 20
     928:	08 95       	ret
     92a:	11 ba       	out	0x11, r1	; 17
     92c:	08 95       	ret
     92e:	61 30       	cpi	r22, 0x01	; 1
     930:	a1 f4       	brne	.+40     	; 0x95a <Dio_voidSetPortDirection+0x52>
     932:	81 30       	cpi	r24, 0x01	; 1
     934:	51 f0       	breq	.+20     	; 0x94a <Dio_voidSetPortDirection+0x42>
     936:	81 30       	cpi	r24, 0x01	; 1
     938:	28 f0       	brcs	.+10     	; 0x944 <Dio_voidSetPortDirection+0x3c>
     93a:	82 30       	cpi	r24, 0x02	; 2
     93c:	49 f0       	breq	.+18     	; 0x950 <Dio_voidSetPortDirection+0x48>
     93e:	83 30       	cpi	r24, 0x03	; 3
     940:	61 f4       	brne	.+24     	; 0x95a <Dio_voidSetPortDirection+0x52>
     942:	09 c0       	rjmp	.+18     	; 0x956 <Dio_voidSetPortDirection+0x4e>
     944:	8f ef       	ldi	r24, 0xFF	; 255
     946:	8a bb       	out	0x1a, r24	; 26
     948:	08 95       	ret
     94a:	8f ef       	ldi	r24, 0xFF	; 255
     94c:	87 bb       	out	0x17, r24	; 23
     94e:	08 95       	ret
     950:	8f ef       	ldi	r24, 0xFF	; 255
     952:	84 bb       	out	0x14, r24	; 20
     954:	08 95       	ret
     956:	8f ef       	ldi	r24, 0xFF	; 255
     958:	81 bb       	out	0x11, r24	; 17
     95a:	08 95       	ret

0000095c <Dio_voidSetPortValue>:
     95c:	81 30       	cpi	r24, 0x01	; 1
     95e:	49 f0       	breq	.+18     	; 0x972 <Dio_voidSetPortValue+0x16>
     960:	81 30       	cpi	r24, 0x01	; 1
     962:	28 f0       	brcs	.+10     	; 0x96e <Dio_voidSetPortValue+0x12>
     964:	82 30       	cpi	r24, 0x02	; 2
     966:	39 f0       	breq	.+14     	; 0x976 <Dio_voidSetPortValue+0x1a>
     968:	83 30       	cpi	r24, 0x03	; 3
     96a:	41 f4       	brne	.+16     	; 0x97c <Dio_voidSetPortValue+0x20>
     96c:	06 c0       	rjmp	.+12     	; 0x97a <Dio_voidSetPortValue+0x1e>
     96e:	6b bb       	out	0x1b, r22	; 27
     970:	08 95       	ret
     972:	68 bb       	out	0x18, r22	; 24
     974:	08 95       	ret
     976:	65 bb       	out	0x15, r22	; 21
     978:	08 95       	ret
     97a:	62 bb       	out	0x12, r22	; 18
     97c:	08 95       	ret

0000097e <Dio_u8GetPortValue>:
     97e:	81 30       	cpi	r24, 0x01	; 1
     980:	51 f0       	breq	.+20     	; 0x996 <Dio_u8GetPortValue+0x18>
     982:	81 30       	cpi	r24, 0x01	; 1
     984:	30 f0       	brcs	.+12     	; 0x992 <Dio_u8GetPortValue+0x14>
     986:	82 30       	cpi	r24, 0x02	; 2
     988:	41 f0       	breq	.+16     	; 0x99a <Dio_u8GetPortValue+0x1c>
     98a:	83 30       	cpi	r24, 0x03	; 3
     98c:	41 f0       	breq	.+16     	; 0x99e <Dio_u8GetPortValue+0x20>
     98e:	80 e0       	ldi	r24, 0x00	; 0
     990:	08 95       	ret
     992:	89 b3       	in	r24, 0x19	; 25
     994:	08 95       	ret
     996:	86 b3       	in	r24, 0x16	; 22
     998:	08 95       	ret
     99a:	83 b3       	in	r24, 0x13	; 19
     99c:	08 95       	ret
     99e:	80 b3       	in	r24, 0x10	; 16
     9a0:	08 95       	ret

000009a2 <Adc_voidInit>:
     9a2:	3f 98       	cbi	0x07, 7	; 7
     9a4:	3e 9a       	sbi	0x07, 6	; 7
     9a6:	3d 9a       	sbi	0x07, 5	; 7
     9a8:	37 9a       	sbi	0x06, 7	; 6
     9aa:	35 98       	cbi	0x06, 5	; 6
     9ac:	33 98       	cbi	0x06, 3	; 6
     9ae:	30 9a       	sbi	0x06, 0	; 6
     9b0:	31 9a       	sbi	0x06, 1	; 6
     9b2:	32 9a       	sbi	0x06, 2	; 6
     9b4:	08 95       	ret

000009b6 <ADC_u8readvalueAsynch>:
     9b6:	97 b1       	in	r25, 0x07	; 7
     9b8:	90 7e       	andi	r25, 0xE0	; 224
     9ba:	97 b9       	out	0x07, r25	; 7
     9bc:	97 b1       	in	r25, 0x07	; 7
     9be:	98 2b       	or	r25, r24
     9c0:	97 b9       	out	0x07, r25	; 7
     9c2:	36 9a       	sbi	0x06, 6	; 6
     9c4:	60 93 c9 01 	sts	0x01C9, r22
     9c8:	70 93 ca 01 	sts	0x01CA, r23
     9cc:	50 93 cc 01 	sts	0x01CC, r21
     9d0:	40 93 cb 01 	sts	0x01CB, r20
     9d4:	8f b7       	in	r24, 0x3f	; 63
     9d6:	80 68       	ori	r24, 0x80	; 128
     9d8:	8f bf       	out	0x3f, r24	; 63
     9da:	33 9a       	sbi	0x06, 3	; 6
     9dc:	86 2f       	mov	r24, r22
     9de:	08 95       	ret

000009e0 <__vector_16>:
     9e0:	1f 92       	push	r1
     9e2:	0f 92       	push	r0
     9e4:	0f b6       	in	r0, 0x3f	; 63
     9e6:	0f 92       	push	r0
     9e8:	11 24       	eor	r1, r1
     9ea:	2f 93       	push	r18
     9ec:	3f 93       	push	r19
     9ee:	4f 93       	push	r20
     9f0:	5f 93       	push	r21
     9f2:	6f 93       	push	r22
     9f4:	7f 93       	push	r23
     9f6:	8f 93       	push	r24
     9f8:	9f 93       	push	r25
     9fa:	af 93       	push	r26
     9fc:	bf 93       	push	r27
     9fe:	ef 93       	push	r30
     a00:	ff 93       	push	r31
     a02:	85 b1       	in	r24, 0x05	; 5
     a04:	e0 91 c9 01 	lds	r30, 0x01C9
     a08:	f0 91 ca 01 	lds	r31, 0x01CA
     a0c:	80 83       	st	Z, r24
     a0e:	e0 91 cb 01 	lds	r30, 0x01CB
     a12:	f0 91 cc 01 	lds	r31, 0x01CC
     a16:	09 95       	icall
     a18:	ff 91       	pop	r31
     a1a:	ef 91       	pop	r30
     a1c:	bf 91       	pop	r27
     a1e:	af 91       	pop	r26
     a20:	9f 91       	pop	r25
     a22:	8f 91       	pop	r24
     a24:	7f 91       	pop	r23
     a26:	6f 91       	pop	r22
     a28:	5f 91       	pop	r21
     a2a:	4f 91       	pop	r20
     a2c:	3f 91       	pop	r19
     a2e:	2f 91       	pop	r18
     a30:	0f 90       	pop	r0
     a32:	0f be       	out	0x3f, r0	; 63
     a34:	0f 90       	pop	r0
     a36:	1f 90       	pop	r1
     a38:	18 95       	reti

00000a3a <ADC_u8readvalue>:
     a3a:	97 b1       	in	r25, 0x07	; 7
     a3c:	90 7e       	andi	r25, 0xE0	; 224
     a3e:	97 b9       	out	0x07, r25	; 7
     a40:	97 b1       	in	r25, 0x07	; 7
     a42:	98 2b       	or	r25, r24
     a44:	97 b9       	out	0x07, r25	; 7
     a46:	36 9a       	sbi	0x06, 6	; 6
     a48:	34 9b       	sbis	0x06, 4	; 6
     a4a:	fe cf       	rjmp	.-4      	; 0xa48 <ADC_u8readvalue+0xe>
     a4c:	36 98       	cbi	0x06, 6	; 6
     a4e:	34 9a       	sbi	0x06, 4	; 6
     a50:	85 b1       	in	r24, 0x05	; 5
     a52:	08 95       	ret

00000a54 <LED_OFF>:
     a54:	81 e0       	ldi	r24, 0x01	; 1
     a56:	60 e0       	ldi	r22, 0x00	; 0
     a58:	40 e0       	ldi	r20, 0x00	; 0
     a5a:	0e 94 f1 03 	call	0x7e2	; 0x7e2 <Dio_voidSetPinValue>
     a5e:	81 e0       	ldi	r24, 0x01	; 1
     a60:	61 e0       	ldi	r22, 0x01	; 1
     a62:	40 e0       	ldi	r20, 0x00	; 0
     a64:	0e 94 f1 03 	call	0x7e2	; 0x7e2 <Dio_voidSetPinValue>
     a68:	81 e0       	ldi	r24, 0x01	; 1
     a6a:	62 e0       	ldi	r22, 0x02	; 2
     a6c:	40 e0       	ldi	r20, 0x00	; 0
     a6e:	0e 94 f1 03 	call	0x7e2	; 0x7e2 <Dio_voidSetPinValue>
     a72:	08 95       	ret

00000a74 <LED_ON>:
     a74:	81 e0       	ldi	r24, 0x01	; 1
     a76:	60 e0       	ldi	r22, 0x00	; 0
     a78:	41 e0       	ldi	r20, 0x01	; 1
     a7a:	0e 94 f1 03 	call	0x7e2	; 0x7e2 <Dio_voidSetPinValue>
     a7e:	81 e0       	ldi	r24, 0x01	; 1
     a80:	61 e0       	ldi	r22, 0x01	; 1
     a82:	41 e0       	ldi	r20, 0x01	; 1
     a84:	0e 94 f1 03 	call	0x7e2	; 0x7e2 <Dio_voidSetPinValue>
     a88:	81 e0       	ldi	r24, 0x01	; 1
     a8a:	62 e0       	ldi	r22, 0x02	; 2
     a8c:	41 e0       	ldi	r20, 0x01	; 1
     a8e:	0e 94 f1 03 	call	0x7e2	; 0x7e2 <Dio_voidSetPinValue>
     a92:	08 95       	ret

00000a94 <Light>:
     a94:	0e 94 e7 02 	call	0x5ce	; 0x5ce <LCD_voidclearscrean>
     a98:	86 e6       	ldi	r24, 0x66	; 102
     a9a:	90 e0       	ldi	r25, 0x00	; 0
     a9c:	0e 94 b4 02 	call	0x568	; 0x568 <LCD_voidsendstring>
     aa0:	81 e0       	ldi	r24, 0x01	; 1
     aa2:	60 e0       	ldi	r22, 0x00	; 0
     aa4:	0e 94 0a 03 	call	0x614	; 0x614 <LCD_gotoxy>
     aa8:	85 e7       	ldi	r24, 0x75	; 117
     aaa:	90 e0       	ldi	r25, 0x00	; 0
     aac:	0e 94 b4 02 	call	0x568	; 0x568 <LCD_voidsendstring>
     ab0:	0e 94 54 00 	call	0xa8	; 0xa8 <UART_u8Recive>
     ab4:	80 93 ce 01 	sts	0x01CE, r24
     ab8:	81 33       	cpi	r24, 0x31	; 49
     aba:	19 f0       	breq	.+6      	; 0xac2 <Light+0x2e>
     abc:	82 33       	cpi	r24, 0x32	; 50
     abe:	31 f4       	brne	.+12     	; 0xacc <Light+0x38>
     ac0:	03 c0       	rjmp	.+6      	; 0xac8 <Light+0x34>
     ac2:	0e 94 3a 05 	call	0xa74	; 0xa74 <LED_ON>
     ac6:	08 95       	ret
     ac8:	0e 94 2a 05 	call	0xa54	; 0xa54 <LED_OFF>
     acc:	08 95       	ret

00000ace <DC_AutomaticMotor>:
     ace:	80 e0       	ldi	r24, 0x00	; 0
     ad0:	62 e0       	ldi	r22, 0x02	; 2
     ad2:	41 e0       	ldi	r20, 0x01	; 1
     ad4:	0e 94 f1 03 	call	0x7e2	; 0x7e2 <Dio_voidSetPinValue>
     ad8:	08 95       	ret

00000ada <DC_Motor>:
     ada:	0e 94 e7 02 	call	0x5ce	; 0x5ce <LCD_voidclearscrean>
     ade:	86 e6       	ldi	r24, 0x66	; 102
     ae0:	90 e0       	ldi	r25, 0x00	; 0
     ae2:	0e 94 b4 02 	call	0x568	; 0x568 <LCD_voidsendstring>
     ae6:	81 e0       	ldi	r24, 0x01	; 1
     ae8:	60 e0       	ldi	r22, 0x00	; 0
     aea:	0e 94 0a 03 	call	0x614	; 0x614 <LCD_gotoxy>
     aee:	85 e7       	ldi	r24, 0x75	; 117
     af0:	90 e0       	ldi	r25, 0x00	; 0
     af2:	0e 94 b4 02 	call	0x568	; 0x568 <LCD_voidsendstring>
     af6:	0e 94 54 00 	call	0xa8	; 0xa8 <UART_u8Recive>
     afa:	80 93 ce 01 	sts	0x01CE, r24
     afe:	81 33       	cpi	r24, 0x31	; 49
     b00:	19 f0       	breq	.+6      	; 0xb08 <DC_Motor+0x2e>
     b02:	82 33       	cpi	r24, 0x32	; 50
     b04:	61 f4       	brne	.+24     	; 0xb1e <DC_Motor+0x44>
     b06:	06 c0       	rjmp	.+12     	; 0xb14 <DC_Motor+0x3a>
     b08:	80 e0       	ldi	r24, 0x00	; 0
     b0a:	62 e0       	ldi	r22, 0x02	; 2
     b0c:	41 e0       	ldi	r20, 0x01	; 1
     b0e:	0e 94 f1 03 	call	0x7e2	; 0x7e2 <Dio_voidSetPinValue>
     b12:	08 95       	ret
     b14:	80 e0       	ldi	r24, 0x00	; 0
     b16:	62 e0       	ldi	r22, 0x02	; 2
     b18:	40 e0       	ldi	r20, 0x00	; 0
     b1a:	0e 94 f1 03 	call	0x7e2	; 0x7e2 <Dio_voidSetPinValue>
     b1e:	08 95       	ret

00000b20 <Buzzer>:
     b20:	82 30       	cpi	r24, 0x02	; 2
     b22:	19 f1       	breq	.+70     	; 0xb6a <Buzzer+0x4a>
     b24:	83 30       	cpi	r24, 0x03	; 3
     b26:	09 f4       	brne	.+2      	; 0xb2a <Buzzer+0xa>
     b28:	59 c0       	rjmp	.+178    	; 0xbdc <Buzzer+0xbc>
     b2a:	81 30       	cpi	r24, 0x01	; 1
     b2c:	09 f0       	breq	.+2      	; 0xb30 <Buzzer+0x10>
     b2e:	64 c0       	rjmp	.+200    	; 0xbf8 <Buzzer+0xd8>
     b30:	80 e0       	ldi	r24, 0x00	; 0
     b32:	61 e0       	ldi	r22, 0x01	; 1
     b34:	41 e0       	ldi	r20, 0x01	; 1
     b36:	0e 94 f1 03 	call	0x7e2	; 0x7e2 <Dio_voidSetPinValue>
     b3a:	80 e1       	ldi	r24, 0x10	; 16
     b3c:	97 e2       	ldi	r25, 0x27	; 39
     b3e:	28 ec       	ldi	r18, 0xC8	; 200
     b40:	30 e0       	ldi	r19, 0x00	; 0
     b42:	f9 01       	movw	r30, r18
     b44:	31 97       	sbiw	r30, 0x01	; 1
     b46:	f1 f7       	brne	.-4      	; 0xb44 <Buzzer+0x24>
     b48:	01 97       	sbiw	r24, 0x01	; 1
     b4a:	d9 f7       	brne	.-10     	; 0xb42 <Buzzer+0x22>
     b4c:	80 e0       	ldi	r24, 0x00	; 0
     b4e:	61 e0       	ldi	r22, 0x01	; 1
     b50:	40 e0       	ldi	r20, 0x00	; 0
     b52:	0e 94 f1 03 	call	0x7e2	; 0x7e2 <Dio_voidSetPinValue>
     b56:	88 ee       	ldi	r24, 0xE8	; 232
     b58:	93 e0       	ldi	r25, 0x03	; 3
     b5a:	28 ec       	ldi	r18, 0xC8	; 200
     b5c:	30 e0       	ldi	r19, 0x00	; 0
     b5e:	f9 01       	movw	r30, r18
     b60:	31 97       	sbiw	r30, 0x01	; 1
     b62:	f1 f7       	brne	.-4      	; 0xb60 <Buzzer+0x40>
     b64:	01 97       	sbiw	r24, 0x01	; 1
     b66:	d9 f7       	brne	.-10     	; 0xb5e <Buzzer+0x3e>
     b68:	08 95       	ret
     b6a:	80 e0       	ldi	r24, 0x00	; 0
     b6c:	61 e0       	ldi	r22, 0x01	; 1
     b6e:	41 e0       	ldi	r20, 0x01	; 1
     b70:	0e 94 f1 03 	call	0x7e2	; 0x7e2 <Dio_voidSetPinValue>
     b74:	88 ee       	ldi	r24, 0xE8	; 232
     b76:	93 e0       	ldi	r25, 0x03	; 3
     b78:	28 ec       	ldi	r18, 0xC8	; 200
     b7a:	30 e0       	ldi	r19, 0x00	; 0
     b7c:	f9 01       	movw	r30, r18
     b7e:	31 97       	sbiw	r30, 0x01	; 1
     b80:	f1 f7       	brne	.-4      	; 0xb7e <Buzzer+0x5e>
     b82:	01 97       	sbiw	r24, 0x01	; 1
     b84:	d9 f7       	brne	.-10     	; 0xb7c <Buzzer+0x5c>
     b86:	80 e0       	ldi	r24, 0x00	; 0
     b88:	61 e0       	ldi	r22, 0x01	; 1
     b8a:	40 e0       	ldi	r20, 0x00	; 0
     b8c:	0e 94 f1 03 	call	0x7e2	; 0x7e2 <Dio_voidSetPinValue>
     b90:	88 ee       	ldi	r24, 0xE8	; 232
     b92:	93 e0       	ldi	r25, 0x03	; 3
     b94:	28 ec       	ldi	r18, 0xC8	; 200
     b96:	30 e0       	ldi	r19, 0x00	; 0
     b98:	f9 01       	movw	r30, r18
     b9a:	31 97       	sbiw	r30, 0x01	; 1
     b9c:	f1 f7       	brne	.-4      	; 0xb9a <Buzzer+0x7a>
     b9e:	01 97       	sbiw	r24, 0x01	; 1
     ba0:	d9 f7       	brne	.-10     	; 0xb98 <Buzzer+0x78>
     ba2:	80 e0       	ldi	r24, 0x00	; 0
     ba4:	61 e0       	ldi	r22, 0x01	; 1
     ba6:	41 e0       	ldi	r20, 0x01	; 1
     ba8:	0e 94 f1 03 	call	0x7e2	; 0x7e2 <Dio_voidSetPinValue>
     bac:	88 ee       	ldi	r24, 0xE8	; 232
     bae:	93 e0       	ldi	r25, 0x03	; 3
     bb0:	28 ec       	ldi	r18, 0xC8	; 200
     bb2:	30 e0       	ldi	r19, 0x00	; 0
     bb4:	f9 01       	movw	r30, r18
     bb6:	31 97       	sbiw	r30, 0x01	; 1
     bb8:	f1 f7       	brne	.-4      	; 0xbb6 <Buzzer+0x96>
     bba:	01 97       	sbiw	r24, 0x01	; 1
     bbc:	d9 f7       	brne	.-10     	; 0xbb4 <Buzzer+0x94>
     bbe:	80 e0       	ldi	r24, 0x00	; 0
     bc0:	61 e0       	ldi	r22, 0x01	; 1
     bc2:	40 e0       	ldi	r20, 0x00	; 0
     bc4:	0e 94 f1 03 	call	0x7e2	; 0x7e2 <Dio_voidSetPinValue>
     bc8:	88 ee       	ldi	r24, 0xE8	; 232
     bca:	93 e0       	ldi	r25, 0x03	; 3
     bcc:	28 ec       	ldi	r18, 0xC8	; 200
     bce:	30 e0       	ldi	r19, 0x00	; 0
     bd0:	f9 01       	movw	r30, r18
     bd2:	31 97       	sbiw	r30, 0x01	; 1
     bd4:	f1 f7       	brne	.-4      	; 0xbd2 <Buzzer+0xb2>
     bd6:	01 97       	sbiw	r24, 0x01	; 1
     bd8:	d9 f7       	brne	.-10     	; 0xbd0 <Buzzer+0xb0>
     bda:	08 95       	ret
     bdc:	80 e0       	ldi	r24, 0x00	; 0
     bde:	61 e0       	ldi	r22, 0x01	; 1
     be0:	41 e0       	ldi	r20, 0x01	; 1
     be2:	0e 94 f1 03 	call	0x7e2	; 0x7e2 <Dio_voidSetPinValue>
     be6:	88 ee       	ldi	r24, 0xE8	; 232
     be8:	93 e0       	ldi	r25, 0x03	; 3
     bea:	28 ec       	ldi	r18, 0xC8	; 200
     bec:	30 e0       	ldi	r19, 0x00	; 0
     bee:	f9 01       	movw	r30, r18
     bf0:	31 97       	sbiw	r30, 0x01	; 1
     bf2:	f1 f7       	brne	.-4      	; 0xbf0 <Buzzer+0xd0>
     bf4:	01 97       	sbiw	r24, 0x01	; 1
     bf6:	d9 f7       	brne	.-10     	; 0xbee <Buzzer+0xce>
     bf8:	08 95       	ret

00000bfa <LED_init>:
     bfa:	81 e0       	ldi	r24, 0x01	; 1
     bfc:	60 e0       	ldi	r22, 0x00	; 0
     bfe:	41 e0       	ldi	r20, 0x01	; 1
     c00:	0e 94 7e 03 	call	0x6fc	; 0x6fc <Dio_voidSetPinDirection>
     c04:	81 e0       	ldi	r24, 0x01	; 1
     c06:	61 e0       	ldi	r22, 0x01	; 1
     c08:	41 e0       	ldi	r20, 0x01	; 1
     c0a:	0e 94 7e 03 	call	0x6fc	; 0x6fc <Dio_voidSetPinDirection>
     c0e:	81 e0       	ldi	r24, 0x01	; 1
     c10:	62 e0       	ldi	r22, 0x02	; 2
     c12:	41 e0       	ldi	r20, 0x01	; 1
     c14:	0e 94 7e 03 	call	0x6fc	; 0x6fc <Dio_voidSetPinDirection>
     c18:	08 95       	ret

00000c1a <Setup_Pins>:
     c1a:	83 e0       	ldi	r24, 0x03	; 3
     c1c:	60 e0       	ldi	r22, 0x00	; 0
     c1e:	40 e0       	ldi	r20, 0x00	; 0
     c20:	0e 94 7e 03 	call	0x6fc	; 0x6fc <Dio_voidSetPinDirection>
     c24:	83 e0       	ldi	r24, 0x03	; 3
     c26:	61 e0       	ldi	r22, 0x01	; 1
     c28:	41 e0       	ldi	r20, 0x01	; 1
     c2a:	0e 94 7e 03 	call	0x6fc	; 0x6fc <Dio_voidSetPinDirection>
     c2e:	80 e0       	ldi	r24, 0x00	; 0
     c30:	61 e0       	ldi	r22, 0x01	; 1
     c32:	41 e0       	ldi	r20, 0x01	; 1
     c34:	0e 94 7e 03 	call	0x6fc	; 0x6fc <Dio_voidSetPinDirection>
     c38:	83 e0       	ldi	r24, 0x03	; 3
     c3a:	65 e0       	ldi	r22, 0x05	; 5
     c3c:	41 e0       	ldi	r20, 0x01	; 1
     c3e:	0e 94 7e 03 	call	0x6fc	; 0x6fc <Dio_voidSetPinDirection>
     c42:	80 e0       	ldi	r24, 0x00	; 0
     c44:	62 e0       	ldi	r22, 0x02	; 2
     c46:	41 e0       	ldi	r20, 0x01	; 1
     c48:	0e 94 7e 03 	call	0x6fc	; 0x6fc <Dio_voidSetPinDirection>
     c4c:	80 e0       	ldi	r24, 0x00	; 0
     c4e:	60 e0       	ldi	r22, 0x00	; 0
     c50:	40 e0       	ldi	r20, 0x00	; 0
     c52:	0e 94 7e 03 	call	0x6fc	; 0x6fc <Dio_voidSetPinDirection>
     c56:	0e 94 fd 05 	call	0xbfa	; 0xbfa <LED_init>
     c5a:	08 95       	ret

00000c5c <Automatic_Temp>:
     c5c:	80 e0       	ldi	r24, 0x00	; 0
     c5e:	0e 94 1d 05 	call	0xa3a	; 0xa3a <ADC_u8readvalue>
     c62:	90 e0       	ldi	r25, 0x00	; 0
     c64:	a0 e0       	ldi	r26, 0x00	; 0
     c66:	b0 e0       	ldi	r27, 0x00	; 0
     c68:	bc 01       	movw	r22, r24
     c6a:	cd 01       	movw	r24, r26
     c6c:	28 e8       	ldi	r18, 0x88	; 136
     c6e:	33 e1       	ldi	r19, 0x13	; 19
     c70:	40 e0       	ldi	r20, 0x00	; 0
     c72:	50 e0       	ldi	r21, 0x00	; 0
     c74:	0e 94 60 08 	call	0x10c0	; 0x10c0 <__mulsi3>
     c78:	dc 01       	movw	r26, r24
     c7a:	cb 01       	movw	r24, r22
     c7c:	89 2f       	mov	r24, r25
     c7e:	9a 2f       	mov	r25, r26
     c80:	ab 2f       	mov	r26, r27
     c82:	bb 27       	eor	r27, r27
     c84:	6a e0       	ldi	r22, 0x0A	; 10
     c86:	70 e0       	ldi	r23, 0x00	; 0
     c88:	0e 94 7f 08 	call	0x10fe	; 0x10fe <__udivmodhi4>
     c8c:	86 2f       	mov	r24, r22
     c8e:	08 95       	ret

00000c90 <Home_AutomaticSys>:
     c90:	1f 93       	push	r17
     c92:	1c c0       	rjmp	.+56     	; 0xccc <Home_AutomaticSys+0x3c>
     c94:	0e 94 e7 02 	call	0x5ce	; 0x5ce <LCD_voidclearscrean>
     c98:	81 e0       	ldi	r24, 0x01	; 1
     c9a:	60 e0       	ldi	r22, 0x00	; 0
     c9c:	0e 94 0a 03 	call	0x614	; 0x614 <LCD_gotoxy>
     ca0:	8f e7       	ldi	r24, 0x7F	; 127
     ca2:	90 e0       	ldi	r25, 0x00	; 0
     ca4:	0e 94 b4 02 	call	0x568	; 0x568 <LCD_voidsendstring>
     ca8:	81 e0       	ldi	r24, 0x01	; 1
     caa:	68 e0       	ldi	r22, 0x08	; 8
     cac:	0e 94 0a 03 	call	0x614	; 0x614 <LCD_gotoxy>
     cb0:	61 2f       	mov	r22, r17
     cb2:	70 e0       	ldi	r23, 0x00	; 0
     cb4:	80 e0       	ldi	r24, 0x00	; 0
     cb6:	90 e0       	ldi	r25, 0x00	; 0
     cb8:	0e 94 34 02 	call	0x468	; 0x468 <LCD_voidWriteNumber>
     cbc:	80 e0       	ldi	r24, 0x00	; 0
     cbe:	62 e0       	ldi	r22, 0x02	; 2
     cc0:	41 e0       	ldi	r20, 0x01	; 1
     cc2:	0e 94 f1 03 	call	0x7e2	; 0x7e2 <Dio_voidSetPinValue>
     cc6:	83 e0       	ldi	r24, 0x03	; 3
     cc8:	0e 94 90 05 	call	0xb20	; 0xb20 <Buzzer>
     ccc:	0e 94 2e 06 	call	0xc5c	; 0xc5c <Automatic_Temp>
     cd0:	18 2f       	mov	r17, r24
     cd2:	89 32       	cpi	r24, 0x29	; 41
     cd4:	f8 f6       	brcc	.-66     	; 0xc94 <Home_AutomaticSys+0x4>
     cd6:	1f 91       	pop	r17
     cd8:	08 95       	ret

00000cda <Manual_Temp>:
     cda:	0e 94 e7 02 	call	0x5ce	; 0x5ce <LCD_voidclearscrean>
     cde:	8f e7       	ldi	r24, 0x7F	; 127
     ce0:	90 e0       	ldi	r25, 0x00	; 0
     ce2:	0e 94 b4 02 	call	0x568	; 0x568 <LCD_voidsendstring>
     ce6:	80 e0       	ldi	r24, 0x00	; 0
     ce8:	0e 94 1d 05 	call	0xa3a	; 0xa3a <ADC_u8readvalue>
     cec:	90 e0       	ldi	r25, 0x00	; 0
     cee:	a0 e0       	ldi	r26, 0x00	; 0
     cf0:	b0 e0       	ldi	r27, 0x00	; 0
     cf2:	bc 01       	movw	r22, r24
     cf4:	cd 01       	movw	r24, r26
     cf6:	28 e8       	ldi	r18, 0x88	; 136
     cf8:	33 e1       	ldi	r19, 0x13	; 19
     cfa:	40 e0       	ldi	r20, 0x00	; 0
     cfc:	50 e0       	ldi	r21, 0x00	; 0
     cfe:	0e 94 60 08 	call	0x10c0	; 0x10c0 <__mulsi3>
     d02:	dc 01       	movw	r26, r24
     d04:	cb 01       	movw	r24, r22
     d06:	89 2f       	mov	r24, r25
     d08:	9a 2f       	mov	r25, r26
     d0a:	ab 2f       	mov	r26, r27
     d0c:	bb 27       	eor	r27, r27
     d0e:	6a e0       	ldi	r22, 0x0A	; 10
     d10:	70 e0       	ldi	r23, 0x00	; 0
     d12:	0e 94 7f 08 	call	0x10fe	; 0x10fe <__udivmodhi4>
     d16:	70 e0       	ldi	r23, 0x00	; 0
     d18:	80 e0       	ldi	r24, 0x00	; 0
     d1a:	90 e0       	ldi	r25, 0x00	; 0
     d1c:	0e 94 34 02 	call	0x468	; 0x468 <LCD_voidWriteNumber>
     d20:	80 e3       	ldi	r24, 0x30	; 48
     d22:	95 e7       	ldi	r25, 0x75	; 117
     d24:	28 ec       	ldi	r18, 0xC8	; 200
     d26:	30 e0       	ldi	r19, 0x00	; 0
     d28:	f9 01       	movw	r30, r18
     d2a:	31 97       	sbiw	r30, 0x01	; 1
     d2c:	f1 f7       	brne	.-4      	; 0xd2a <Manual_Temp+0x50>
     d2e:	01 97       	sbiw	r24, 0x01	; 1
     d30:	d9 f7       	brne	.-10     	; 0xd28 <Manual_Temp+0x4e>
     d32:	0e 94 e7 02 	call	0x5ce	; 0x5ce <LCD_voidclearscrean>
     d36:	88 ee       	ldi	r24, 0xE8	; 232
     d38:	93 e0       	ldi	r25, 0x03	; 3
     d3a:	28 ec       	ldi	r18, 0xC8	; 200
     d3c:	30 e0       	ldi	r19, 0x00	; 0
     d3e:	f9 01       	movw	r30, r18
     d40:	31 97       	sbiw	r30, 0x01	; 1
     d42:	f1 f7       	brne	.-4      	; 0xd40 <Manual_Temp+0x66>
     d44:	01 97       	sbiw	r24, 0x01	; 1
     d46:	d9 f7       	brne	.-10     	; 0xd3e <Manual_Temp+0x64>
     d48:	08 95       	ret

00000d4a <servo>:
     d4a:	0e 94 77 01 	call	0x2ee	; 0x2ee <PWM_voidSetDutyCycle1>
     d4e:	88 e8       	ldi	r24, 0x88	; 136
     d50:	93 e1       	ldi	r25, 0x13	; 19
     d52:	28 ec       	ldi	r18, 0xC8	; 200
     d54:	30 e0       	ldi	r19, 0x00	; 0
     d56:	f9 01       	movw	r30, r18
     d58:	31 97       	sbiw	r30, 0x01	; 1
     d5a:	f1 f7       	brne	.-4      	; 0xd58 <servo+0xe>
     d5c:	01 97       	sbiw	r24, 0x01	; 1
     d5e:	d9 f7       	brne	.-10     	; 0xd56 <servo+0xc>
     d60:	08 95       	ret

00000d62 <Home_ManualSys>:
     d62:	0e 94 e7 02 	call	0x5ce	; 0x5ce <LCD_voidclearscrean>
     d66:	86 e8       	ldi	r24, 0x86	; 134
     d68:	90 e0       	ldi	r25, 0x00	; 0
     d6a:	0e 94 b4 02 	call	0x568	; 0x568 <LCD_voidsendstring>
     d6e:	81 e0       	ldi	r24, 0x01	; 1
     d70:	60 e0       	ldi	r22, 0x00	; 0
     d72:	0e 94 0a 03 	call	0x614	; 0x614 <LCD_gotoxy>
     d76:	86 e9       	ldi	r24, 0x96	; 150
     d78:	90 e0       	ldi	r25, 0x00	; 0
     d7a:	0e 94 b4 02 	call	0x568	; 0x568 <LCD_voidsendstring>
     d7e:	0e 94 54 00 	call	0xa8	; 0xa8 <UART_u8Recive>
     d82:	80 93 cd 01 	sts	0x01CD, r24
     d86:	0e 94 e7 02 	call	0x5ce	; 0x5ce <LCD_voidclearscrean>
     d8a:	80 91 cd 01 	lds	r24, 0x01CD
     d8e:	82 33       	cpi	r24, 0x32	; 50
     d90:	79 f0       	breq	.+30     	; 0xdb0 <Home_ManualSys+0x4e>
     d92:	83 33       	cpi	r24, 0x33	; 51
     d94:	18 f4       	brcc	.+6      	; 0xd9c <Home_ManualSys+0x3a>
     d96:	81 33       	cpi	r24, 0x31	; 49
     d98:	a1 f4       	brne	.+40     	; 0xdc2 <Home_ManualSys+0x60>
     d9a:	05 c0       	rjmp	.+10     	; 0xda6 <Home_ManualSys+0x44>
     d9c:	83 33       	cpi	r24, 0x33	; 51
     d9e:	59 f0       	breq	.+22     	; 0xdb6 <Home_ManualSys+0x54>
     da0:	84 33       	cpi	r24, 0x34	; 52
     da2:	79 f4       	brne	.+30     	; 0xdc2 <Home_ManualSys+0x60>
     da4:	0b c0       	rjmp	.+22     	; 0xdbc <Home_ManualSys+0x5a>
     da6:	84 ec       	ldi	r24, 0xC4	; 196
     da8:	99 e0       	ldi	r25, 0x09	; 9
     daa:	0e 94 a5 06 	call	0xd4a	; 0xd4a <servo>
     dae:	08 95       	ret
     db0:	0e 94 6d 06 	call	0xcda	; 0xcda <Manual_Temp>
     db4:	08 95       	ret
     db6:	0e 94 6d 05 	call	0xada	; 0xada <DC_Motor>
     dba:	08 95       	ret
     dbc:	0e 94 4a 05 	call	0xa94	; 0xa94 <Light>
     dc0:	08 95       	ret
     dc2:	0e 94 e7 02 	call	0x5ce	; 0x5ce <LCD_voidclearscrean>
     dc6:	87 ea       	ldi	r24, 0xA7	; 167
     dc8:	90 e0       	ldi	r25, 0x00	; 0
     dca:	0e 94 b4 02 	call	0x568	; 0x568 <LCD_voidsendstring>
     dce:	80 e1       	ldi	r24, 0x10	; 16
     dd0:	97 e2       	ldi	r25, 0x27	; 39
     dd2:	28 ec       	ldi	r18, 0xC8	; 200
     dd4:	30 e0       	ldi	r19, 0x00	; 0
     dd6:	f9 01       	movw	r30, r18
     dd8:	31 97       	sbiw	r30, 0x01	; 1
     dda:	f1 f7       	brne	.-4      	; 0xdd8 <Home_ManualSys+0x76>
     ddc:	01 97       	sbiw	r24, 0x01	; 1
     dde:	d9 f7       	brne	.-10     	; 0xdd6 <Home_ManualSys+0x74>
     de0:	08 95       	ret

00000de2 <loginFunc>:
     de2:	6f 92       	push	r6
     de4:	7f 92       	push	r7
     de6:	8f 92       	push	r8
     de8:	9f 92       	push	r9
     dea:	af 92       	push	r10
     dec:	bf 92       	push	r11
     dee:	cf 92       	push	r12
     df0:	df 92       	push	r13
     df2:	ef 92       	push	r14
     df4:	ff 92       	push	r15
     df6:	0f 93       	push	r16
     df8:	1f 93       	push	r17
     dfa:	df 93       	push	r29
     dfc:	cf 93       	push	r28
     dfe:	cd b7       	in	r28, 0x3d	; 61
     e00:	de b7       	in	r29, 0x3e	; 62
     e02:	2c 97       	sbiw	r28, 0x0c	; 12
     e04:	0f b6       	in	r0, 0x3f	; 63
     e06:	f8 94       	cli
     e08:	de bf       	out	0x3e, r29	; 62
     e0a:	0f be       	out	0x3f, r0	; 63
     e0c:	cd bf       	out	0x3d, r28	; 61
     e0e:	87 eb       	ldi	r24, 0xB7	; 183
     e10:	90 e0       	ldi	r25, 0x00	; 0
     e12:	0e 94 b4 02 	call	0x568	; 0x568 <LCD_voidsendstring>
     e16:	88 e8       	ldi	r24, 0x88	; 136
     e18:	93 e1       	ldi	r25, 0x13	; 19
     e1a:	28 ec       	ldi	r18, 0xC8	; 200
     e1c:	30 e0       	ldi	r19, 0x00	; 0
     e1e:	f9 01       	movw	r30, r18
     e20:	31 97       	sbiw	r30, 0x01	; 1
     e22:	f1 f7       	brne	.-4      	; 0xe20 <loginFunc+0x3e>
     e24:	01 97       	sbiw	r24, 0x01	; 1
     e26:	d9 f7       	brne	.-10     	; 0xe1e <loginFunc+0x3c>
     e28:	f2 e0       	ldi	r31, 0x02	; 2
     e2a:	cf 2e       	mov	r12, r31
     e2c:	d1 2c       	mov	r13, r1
     e2e:	e1 2c       	mov	r14, r1
     e30:	f1 2c       	mov	r15, r1
     e32:	e6 e0       	ldi	r30, 0x06	; 6
     e34:	ae 2e       	mov	r10, r30
     e36:	b1 2c       	mov	r11, r1
     e38:	ac 0e       	add	r10, r28
     e3a:	bd 1e       	adc	r11, r29
     e3c:	78 ec       	ldi	r23, 0xC8	; 200
     e3e:	67 2e       	mov	r6, r23
     e40:	71 2c       	mov	r7, r1
     e42:	6d e0       	ldi	r22, 0x0D	; 13
     e44:	86 2e       	mov	r8, r22
     e46:	91 2c       	mov	r9, r1
     e48:	8c 0e       	add	r8, r28
     e4a:	9d 1e       	adc	r9, r29
     e4c:	0e 94 e7 02 	call	0x5ce	; 0x5ce <LCD_voidclearscrean>
     e50:	82 ec       	ldi	r24, 0xC2	; 194
     e52:	90 e0       	ldi	r25, 0x00	; 0
     e54:	0e 94 b4 02 	call	0x568	; 0x568 <LCD_voidsendstring>
     e58:	c5 01       	movw	r24, r10
     e5a:	0e 94 65 00 	call	0xca	; 0xca <UART_ReceiveString>
     e5e:	05 e4       	ldi	r16, 0x45	; 69
     e60:	11 e0       	ldi	r17, 0x01	; 1
     e62:	c5 01       	movw	r24, r10
     e64:	b8 01       	movw	r22, r16
     e66:	0e 94 d0 08 	call	0x11a0	; 0x11a0 <strcmp>
     e6a:	00 97       	sbiw	r24, 0x00	; 0
     e6c:	61 f4       	brne	.+24     	; 0xe86 <loginFunc+0xa4>
     e6e:	0e 94 e7 02 	call	0x5ce	; 0x5ce <LCD_voidclearscrean>
     e72:	80 e1       	ldi	r24, 0x10	; 16
     e74:	97 e2       	ldi	r25, 0x27	; 39
     e76:	28 ec       	ldi	r18, 0xC8	; 200
     e78:	30 e0       	ldi	r19, 0x00	; 0
     e7a:	f9 01       	movw	r30, r18
     e7c:	31 97       	sbiw	r30, 0x01	; 1
     e7e:	f1 f7       	brne	.-4      	; 0xe7c <loginFunc+0x9a>
     e80:	01 97       	sbiw	r24, 0x01	; 1
     e82:	d9 f7       	brne	.-10     	; 0xe7a <loginFunc+0x98>
     e84:	5c c0       	rjmp	.+184    	; 0xf3e <loginFunc+0x15c>
     e86:	09 5f       	subi	r16, 0xF9	; 249
     e88:	1f 4f       	sbci	r17, 0xFF	; 255
     e8a:	81 e0       	ldi	r24, 0x01	; 1
     e8c:	0b 38       	cpi	r16, 0x8B	; 139
     e8e:	18 07       	cpc	r17, r24
     e90:	41 f7       	brne	.-48     	; 0xe62 <loginFunc+0x80>
     e92:	f8 c0       	rjmp	.+496    	; 0x1084 <loginFunc+0x2a2>
     e94:	0e 94 e7 02 	call	0x5ce	; 0x5ce <LCD_voidclearscrean>
     e98:	83 ed       	ldi	r24, 0xD3	; 211
     e9a:	90 e0       	ldi	r25, 0x00	; 0
     e9c:	0e 94 b4 02 	call	0x568	; 0x568 <LCD_voidsendstring>
     ea0:	81 e0       	ldi	r24, 0x01	; 1
     ea2:	0e 94 90 05 	call	0xb20	; 0xb20 <Buzzer>
     ea6:	81 e0       	ldi	r24, 0x01	; 1
     ea8:	60 e0       	ldi	r22, 0x00	; 0
     eaa:	0e 94 0a 03 	call	0x614	; 0x614 <LCD_gotoxy>
     eae:	83 ee       	ldi	r24, 0xE3	; 227
     eb0:	90 e0       	ldi	r25, 0x00	; 0
     eb2:	0e 94 b4 02 	call	0x568	; 0x568 <LCD_voidsendstring>
     eb6:	81 e0       	ldi	r24, 0x01	; 1
     eb8:	6b e0       	ldi	r22, 0x0B	; 11
     eba:	0e 94 0a 03 	call	0x614	; 0x614 <LCD_gotoxy>
     ebe:	c7 01       	movw	r24, r14
     ec0:	b6 01       	movw	r22, r12
     ec2:	0e 94 34 02 	call	0x468	; 0x468 <LCD_voidWriteNumber>
     ec6:	8e ee       	ldi	r24, 0xEE	; 238
     ec8:	90 e0       	ldi	r25, 0x00	; 0
     eca:	0e 94 b4 02 	call	0x568	; 0x568 <LCD_voidsendstring>
     ece:	80 e1       	ldi	r24, 0x10	; 16
     ed0:	97 e2       	ldi	r25, 0x27	; 39
     ed2:	f3 01       	movw	r30, r6
     ed4:	31 97       	sbiw	r30, 0x01	; 1
     ed6:	f1 f7       	brne	.-4      	; 0xed4 <loginFunc+0xf2>
     ed8:	01 97       	sbiw	r24, 0x01	; 1
     eda:	d9 f7       	brne	.-10     	; 0xed2 <loginFunc+0xf0>
     edc:	f5 01       	movw	r30, r10
     ede:	11 92       	st	Z+, r1
     ee0:	e8 15       	cp	r30, r8
     ee2:	f9 05       	cpc	r31, r9
     ee4:	e1 f7       	brne	.-8      	; 0xede <loginFunc+0xfc>
     ee6:	1b c0       	rjmp	.+54     	; 0xf1e <loginFunc+0x13c>
     ee8:	0e 94 e7 02 	call	0x5ce	; 0x5ce <LCD_voidclearscrean>
     eec:	84 ef       	ldi	r24, 0xF4	; 244
     eee:	90 e0       	ldi	r25, 0x00	; 0
     ef0:	0e 94 b4 02 	call	0x568	; 0x568 <LCD_voidsendstring>
     ef4:	81 e0       	ldi	r24, 0x01	; 1
     ef6:	60 e0       	ldi	r22, 0x00	; 0
     ef8:	0e 94 0a 03 	call	0x614	; 0x614 <LCD_gotoxy>
     efc:	82 e0       	ldi	r24, 0x02	; 2
     efe:	91 e0       	ldi	r25, 0x01	; 1
     f00:	0e 94 b4 02 	call	0x568	; 0x568 <LCD_voidsendstring>
     f04:	83 e0       	ldi	r24, 0x03	; 3
     f06:	0e 94 90 05 	call	0xb20	; 0xb20 <Buzzer>
     f0a:	80 e1       	ldi	r24, 0x10	; 16
     f0c:	97 e2       	ldi	r25, 0x27	; 39
     f0e:	28 ec       	ldi	r18, 0xC8	; 200
     f10:	30 e0       	ldi	r19, 0x00	; 0
     f12:	f9 01       	movw	r30, r18
     f14:	31 97       	sbiw	r30, 0x01	; 1
     f16:	f1 f7       	brne	.-4      	; 0xf14 <loginFunc+0x132>
     f18:	01 97       	sbiw	r24, 0x01	; 1
     f1a:	d9 f7       	brne	.-10     	; 0xf12 <loginFunc+0x130>
     f1c:	9c c0       	rjmp	.+312    	; 0x1056 <loginFunc+0x274>
     f1e:	08 94       	sec
     f20:	c1 08       	sbc	r12, r1
     f22:	d1 08       	sbc	r13, r1
     f24:	e1 08       	sbc	r14, r1
     f26:	f1 08       	sbc	r15, r1
     f28:	8f ef       	ldi	r24, 0xFF	; 255
     f2a:	c8 16       	cp	r12, r24
     f2c:	8f ef       	ldi	r24, 0xFF	; 255
     f2e:	d8 06       	cpc	r13, r24
     f30:	8f ef       	ldi	r24, 0xFF	; 255
     f32:	e8 06       	cpc	r14, r24
     f34:	8f ef       	ldi	r24, 0xFF	; 255
     f36:	f8 06       	cpc	r15, r24
     f38:	09 f0       	breq	.+2      	; 0xf3c <loginFunc+0x15a>
     f3a:	88 cf       	rjmp	.-240    	; 0xe4c <loginFunc+0x6a>
     f3c:	8c c0       	rjmp	.+280    	; 0x1056 <loginFunc+0x274>
     f3e:	52 e0       	ldi	r21, 0x02	; 2
     f40:	c5 2e       	mov	r12, r21
     f42:	d1 2c       	mov	r13, r1
     f44:	e1 2c       	mov	r14, r1
     f46:	f1 2c       	mov	r15, r1
     f48:	4e 01       	movw	r8, r28
     f4a:	08 94       	sec
     f4c:	81 1c       	adc	r8, r1
     f4e:	91 1c       	adc	r9, r1
     f50:	48 ec       	ldi	r20, 0xC8	; 200
     f52:	a4 2e       	mov	r10, r20
     f54:	b1 2c       	mov	r11, r1
     f56:	0e 94 e7 02 	call	0x5ce	; 0x5ce <LCD_voidclearscrean>
     f5a:	82 e1       	ldi	r24, 0x12	; 18
     f5c:	91 e0       	ldi	r25, 0x01	; 1
     f5e:	0e 94 b4 02 	call	0x568	; 0x568 <LCD_voidsendstring>
     f62:	c4 01       	movw	r24, r8
     f64:	0e 94 65 00 	call	0xca	; 0xca <UART_ReceiveString>
     f68:	80 e1       	ldi	r24, 0x10	; 16
     f6a:	97 e2       	ldi	r25, 0x27	; 39
     f6c:	f5 01       	movw	r30, r10
     f6e:	31 97       	sbiw	r30, 0x01	; 1
     f70:	f1 f7       	brne	.-4      	; 0xf6e <loginFunc+0x18c>
     f72:	01 97       	sbiw	r24, 0x01	; 1
     f74:	d9 f7       	brne	.-10     	; 0xf6c <loginFunc+0x18a>
     f76:	0b e8       	ldi	r16, 0x8B	; 139
     f78:	11 e0       	ldi	r17, 0x01	; 1
     f7a:	c4 01       	movw	r24, r8
     f7c:	b8 01       	movw	r22, r16
     f7e:	0e 94 d0 08 	call	0x11a0	; 0x11a0 <strcmp>
     f82:	00 97       	sbiw	r24, 0x00	; 0
     f84:	71 f4       	brne	.+28     	; 0xfa2 <loginFunc+0x1c0>
     f86:	0e 94 e7 02 	call	0x5ce	; 0x5ce <LCD_voidclearscrean>
     f8a:	0e 94 e7 02 	call	0x5ce	; 0x5ce <LCD_voidclearscrean>
     f8e:	84 e2       	ldi	r24, 0x24	; 36
     f90:	91 e0       	ldi	r25, 0x01	; 1
     f92:	0e 94 b4 02 	call	0x568	; 0x568 <LCD_voidsendstring>
     f96:	82 e0       	ldi	r24, 0x02	; 2
     f98:	0e 94 90 05 	call	0xb20	; 0xb20 <Buzzer>
     f9c:	81 e0       	ldi	r24, 0x01	; 1
     f9e:	90 e0       	ldi	r25, 0x00	; 0
     fa0:	5c c0       	rjmp	.+184    	; 0x105a <loginFunc+0x278>
     fa2:	0b 5f       	subi	r16, 0xFB	; 251
     fa4:	1f 4f       	sbci	r17, 0xFF	; 255
     fa6:	81 e0       	ldi	r24, 0x01	; 1
     fa8:	0d 3b       	cpi	r16, 0xBD	; 189
     faa:	18 07       	cpc	r17, r24
     fac:	31 f7       	brne	.-52     	; 0xf7a <loginFunc+0x198>
     fae:	6e c0       	rjmp	.+220    	; 0x108c <loginFunc+0x2aa>
     fb0:	0e 94 e7 02 	call	0x5ce	; 0x5ce <LCD_voidclearscrean>
     fb4:	86 e3       	ldi	r24, 0x36	; 54
     fb6:	91 e0       	ldi	r25, 0x01	; 1
     fb8:	0e 94 b4 02 	call	0x568	; 0x568 <LCD_voidsendstring>
     fbc:	81 e0       	ldi	r24, 0x01	; 1
     fbe:	0e 94 90 05 	call	0xb20	; 0xb20 <Buzzer>
     fc2:	81 e0       	ldi	r24, 0x01	; 1
     fc4:	60 e0       	ldi	r22, 0x00	; 0
     fc6:	0e 94 0a 03 	call	0x614	; 0x614 <LCD_gotoxy>
     fca:	83 ee       	ldi	r24, 0xE3	; 227
     fcc:	90 e0       	ldi	r25, 0x00	; 0
     fce:	0e 94 b4 02 	call	0x568	; 0x568 <LCD_voidsendstring>
     fd2:	81 e0       	ldi	r24, 0x01	; 1
     fd4:	6a e0       	ldi	r22, 0x0A	; 10
     fd6:	0e 94 0a 03 	call	0x614	; 0x614 <LCD_gotoxy>
     fda:	c7 01       	movw	r24, r14
     fdc:	b6 01       	movw	r22, r12
     fde:	0e 94 34 02 	call	0x468	; 0x468 <LCD_voidWriteNumber>
     fe2:	8e ee       	ldi	r24, 0xEE	; 238
     fe4:	90 e0       	ldi	r25, 0x00	; 0
     fe6:	0e 94 b4 02 	call	0x568	; 0x568 <LCD_voidsendstring>
     fea:	80 e1       	ldi	r24, 0x10	; 16
     fec:	97 e2       	ldi	r25, 0x27	; 39
     fee:	f5 01       	movw	r30, r10
     ff0:	31 97       	sbiw	r30, 0x01	; 1
     ff2:	f1 f7       	brne	.-4      	; 0xff0 <loginFunc+0x20e>
     ff4:	01 97       	sbiw	r24, 0x01	; 1
     ff6:	d9 f7       	brne	.-10     	; 0xfee <loginFunc+0x20c>
     ff8:	19 82       	std	Y+1, r1	; 0x01
     ffa:	1a 82       	std	Y+2, r1	; 0x02
     ffc:	1b 82       	std	Y+3, r1	; 0x03
     ffe:	1c 82       	std	Y+4, r1	; 0x04
    1000:	1d 82       	std	Y+5, r1	; 0x05
    1002:	08 94       	sec
    1004:	c1 08       	sbc	r12, r1
    1006:	d1 08       	sbc	r13, r1
    1008:	e1 08       	sbc	r14, r1
    100a:	f1 08       	sbc	r15, r1
    100c:	8f ef       	ldi	r24, 0xFF	; 255
    100e:	c8 16       	cp	r12, r24
    1010:	8f ef       	ldi	r24, 0xFF	; 255
    1012:	d8 06       	cpc	r13, r24
    1014:	8f ef       	ldi	r24, 0xFF	; 255
    1016:	e8 06       	cpc	r14, r24
    1018:	8f ef       	ldi	r24, 0xFF	; 255
    101a:	f8 06       	cpc	r15, r24
    101c:	09 f0       	breq	.+2      	; 0x1020 <loginFunc+0x23e>
    101e:	9b cf       	rjmp	.-202    	; 0xf56 <loginFunc+0x174>
    1020:	1a c0       	rjmp	.+52     	; 0x1056 <loginFunc+0x274>
    1022:	0e 94 e7 02 	call	0x5ce	; 0x5ce <LCD_voidclearscrean>
    1026:	84 ef       	ldi	r24, 0xF4	; 244
    1028:	90 e0       	ldi	r25, 0x00	; 0
    102a:	0e 94 b4 02 	call	0x568	; 0x568 <LCD_voidsendstring>
    102e:	81 e0       	ldi	r24, 0x01	; 1
    1030:	60 e0       	ldi	r22, 0x00	; 0
    1032:	0e 94 0a 03 	call	0x614	; 0x614 <LCD_gotoxy>
    1036:	82 e0       	ldi	r24, 0x02	; 2
    1038:	91 e0       	ldi	r25, 0x01	; 1
    103a:	0e 94 b4 02 	call	0x568	; 0x568 <LCD_voidsendstring>
    103e:	80 e1       	ldi	r24, 0x10	; 16
    1040:	97 e2       	ldi	r25, 0x27	; 39
    1042:	28 ec       	ldi	r18, 0xC8	; 200
    1044:	30 e0       	ldi	r19, 0x00	; 0
    1046:	f9 01       	movw	r30, r18
    1048:	31 97       	sbiw	r30, 0x01	; 1
    104a:	f1 f7       	brne	.-4      	; 0x1048 <loginFunc+0x266>
    104c:	01 97       	sbiw	r24, 0x01	; 1
    104e:	d9 f7       	brne	.-10     	; 0x1046 <loginFunc+0x264>
    1050:	83 e0       	ldi	r24, 0x03	; 3
    1052:	0e 94 90 05 	call	0xb20	; 0xb20 <Buzzer>
    1056:	80 e0       	ldi	r24, 0x00	; 0
    1058:	90 e0       	ldi	r25, 0x00	; 0
    105a:	2c 96       	adiw	r28, 0x0c	; 12
    105c:	0f b6       	in	r0, 0x3f	; 63
    105e:	f8 94       	cli
    1060:	de bf       	out	0x3e, r29	; 62
    1062:	0f be       	out	0x3f, r0	; 63
    1064:	cd bf       	out	0x3d, r28	; 61
    1066:	cf 91       	pop	r28
    1068:	df 91       	pop	r29
    106a:	1f 91       	pop	r17
    106c:	0f 91       	pop	r16
    106e:	ff 90       	pop	r15
    1070:	ef 90       	pop	r14
    1072:	df 90       	pop	r13
    1074:	cf 90       	pop	r12
    1076:	bf 90       	pop	r11
    1078:	af 90       	pop	r10
    107a:	9f 90       	pop	r9
    107c:	8f 90       	pop	r8
    107e:	7f 90       	pop	r7
    1080:	6f 90       	pop	r6
    1082:	08 95       	ret
    1084:	cc 20       	and	r12, r12
    1086:	09 f4       	brne	.+2      	; 0x108a <loginFunc+0x2a8>
    1088:	2f cf       	rjmp	.-418    	; 0xee8 <loginFunc+0x106>
    108a:	04 cf       	rjmp	.-504    	; 0xe94 <loginFunc+0xb2>
    108c:	cc 20       	and	r12, r12
    108e:	49 f2       	breq	.-110    	; 0x1022 <loginFunc+0x240>
    1090:	8f cf       	rjmp	.-226    	; 0xfb0 <loginFunc+0x1ce>

00001092 <main>:
    1092:	0e 94 3d 03 	call	0x67a	; 0x67a <LCD_voidinit>
    1096:	0e 94 49 00 	call	0x92	; 0x92 <UART_init>
    109a:	0e 94 d1 04 	call	0x9a2	; 0x9a2 <Adc_voidInit>
    109e:	0e 94 57 01 	call	0x2ae	; 0x2ae <PWM_voidInitTimer1>
    10a2:	0e 94 f9 00 	call	0x1f2	; 0x1f2 <Timer_voidInitTimer0>
    10a6:	0e 94 0d 06 	call	0xc1a	; 0xc1a <Setup_Pins>
    10aa:	84 ef       	ldi	r24, 0xF4	; 244
    10ac:	91 e0       	ldi	r25, 0x01	; 1
    10ae:	0e 94 77 01 	call	0x2ee	; 0x2ee <PWM_voidSetDutyCycle1>
    10b2:	88 e4       	ldi	r24, 0x48	; 72
    10b4:	96 e0       	ldi	r25, 0x06	; 6
    10b6:	0e 94 11 01 	call	0x222	; 0x222 <Timer_voidSetCtc0Isr>
    10ba:	0e 94 b1 06 	call	0xd62	; 0xd62 <Home_ManualSys>
    10be:	fd cf       	rjmp	.-6      	; 0x10ba <main+0x28>

000010c0 <__mulsi3>:
    10c0:	62 9f       	mul	r22, r18
    10c2:	d0 01       	movw	r26, r0
    10c4:	73 9f       	mul	r23, r19
    10c6:	f0 01       	movw	r30, r0
    10c8:	82 9f       	mul	r24, r18
    10ca:	e0 0d       	add	r30, r0
    10cc:	f1 1d       	adc	r31, r1
    10ce:	64 9f       	mul	r22, r20
    10d0:	e0 0d       	add	r30, r0
    10d2:	f1 1d       	adc	r31, r1
    10d4:	92 9f       	mul	r25, r18
    10d6:	f0 0d       	add	r31, r0
    10d8:	83 9f       	mul	r24, r19
    10da:	f0 0d       	add	r31, r0
    10dc:	74 9f       	mul	r23, r20
    10de:	f0 0d       	add	r31, r0
    10e0:	65 9f       	mul	r22, r21
    10e2:	f0 0d       	add	r31, r0
    10e4:	99 27       	eor	r25, r25
    10e6:	72 9f       	mul	r23, r18
    10e8:	b0 0d       	add	r27, r0
    10ea:	e1 1d       	adc	r30, r1
    10ec:	f9 1f       	adc	r31, r25
    10ee:	63 9f       	mul	r22, r19
    10f0:	b0 0d       	add	r27, r0
    10f2:	e1 1d       	adc	r30, r1
    10f4:	f9 1f       	adc	r31, r25
    10f6:	bd 01       	movw	r22, r26
    10f8:	cf 01       	movw	r24, r30
    10fa:	11 24       	eor	r1, r1
    10fc:	08 95       	ret

000010fe <__udivmodhi4>:
    10fe:	aa 1b       	sub	r26, r26
    1100:	bb 1b       	sub	r27, r27
    1102:	51 e1       	ldi	r21, 0x11	; 17
    1104:	07 c0       	rjmp	.+14     	; 0x1114 <__udivmodhi4_ep>

00001106 <__udivmodhi4_loop>:
    1106:	aa 1f       	adc	r26, r26
    1108:	bb 1f       	adc	r27, r27
    110a:	a6 17       	cp	r26, r22
    110c:	b7 07       	cpc	r27, r23
    110e:	10 f0       	brcs	.+4      	; 0x1114 <__udivmodhi4_ep>
    1110:	a6 1b       	sub	r26, r22
    1112:	b7 0b       	sbc	r27, r23

00001114 <__udivmodhi4_ep>:
    1114:	88 1f       	adc	r24, r24
    1116:	99 1f       	adc	r25, r25
    1118:	5a 95       	dec	r21
    111a:	a9 f7       	brne	.-22     	; 0x1106 <__udivmodhi4_loop>
    111c:	80 95       	com	r24
    111e:	90 95       	com	r25
    1120:	bc 01       	movw	r22, r24
    1122:	cd 01       	movw	r24, r26
    1124:	08 95       	ret

00001126 <__divmodsi4>:
    1126:	97 fb       	bst	r25, 7
    1128:	09 2e       	mov	r0, r25
    112a:	05 26       	eor	r0, r21
    112c:	0e d0       	rcall	.+28     	; 0x114a <__divmodsi4_neg1>
    112e:	57 fd       	sbrc	r21, 7
    1130:	04 d0       	rcall	.+8      	; 0x113a <__divmodsi4_neg2>
    1132:	14 d0       	rcall	.+40     	; 0x115c <__udivmodsi4>
    1134:	0a d0       	rcall	.+20     	; 0x114a <__divmodsi4_neg1>
    1136:	00 1c       	adc	r0, r0
    1138:	38 f4       	brcc	.+14     	; 0x1148 <__divmodsi4_exit>

0000113a <__divmodsi4_neg2>:
    113a:	50 95       	com	r21
    113c:	40 95       	com	r20
    113e:	30 95       	com	r19
    1140:	21 95       	neg	r18
    1142:	3f 4f       	sbci	r19, 0xFF	; 255
    1144:	4f 4f       	sbci	r20, 0xFF	; 255
    1146:	5f 4f       	sbci	r21, 0xFF	; 255

00001148 <__divmodsi4_exit>:
    1148:	08 95       	ret

0000114a <__divmodsi4_neg1>:
    114a:	f6 f7       	brtc	.-4      	; 0x1148 <__divmodsi4_exit>
    114c:	90 95       	com	r25
    114e:	80 95       	com	r24
    1150:	70 95       	com	r23
    1152:	61 95       	neg	r22
    1154:	7f 4f       	sbci	r23, 0xFF	; 255
    1156:	8f 4f       	sbci	r24, 0xFF	; 255
    1158:	9f 4f       	sbci	r25, 0xFF	; 255
    115a:	08 95       	ret

0000115c <__udivmodsi4>:
    115c:	a1 e2       	ldi	r26, 0x21	; 33
    115e:	1a 2e       	mov	r1, r26
    1160:	aa 1b       	sub	r26, r26
    1162:	bb 1b       	sub	r27, r27
    1164:	fd 01       	movw	r30, r26
    1166:	0d c0       	rjmp	.+26     	; 0x1182 <__udivmodsi4_ep>

00001168 <__udivmodsi4_loop>:
    1168:	aa 1f       	adc	r26, r26
    116a:	bb 1f       	adc	r27, r27
    116c:	ee 1f       	adc	r30, r30
    116e:	ff 1f       	adc	r31, r31
    1170:	a2 17       	cp	r26, r18
    1172:	b3 07       	cpc	r27, r19
    1174:	e4 07       	cpc	r30, r20
    1176:	f5 07       	cpc	r31, r21
    1178:	20 f0       	brcs	.+8      	; 0x1182 <__udivmodsi4_ep>
    117a:	a2 1b       	sub	r26, r18
    117c:	b3 0b       	sbc	r27, r19
    117e:	e4 0b       	sbc	r30, r20
    1180:	f5 0b       	sbc	r31, r21

00001182 <__udivmodsi4_ep>:
    1182:	66 1f       	adc	r22, r22
    1184:	77 1f       	adc	r23, r23
    1186:	88 1f       	adc	r24, r24
    1188:	99 1f       	adc	r25, r25
    118a:	1a 94       	dec	r1
    118c:	69 f7       	brne	.-38     	; 0x1168 <__udivmodsi4_loop>
    118e:	60 95       	com	r22
    1190:	70 95       	com	r23
    1192:	80 95       	com	r24
    1194:	90 95       	com	r25
    1196:	9b 01       	movw	r18, r22
    1198:	ac 01       	movw	r20, r24
    119a:	bd 01       	movw	r22, r26
    119c:	cf 01       	movw	r24, r30
    119e:	08 95       	ret

000011a0 <strcmp>:
    11a0:	fb 01       	movw	r30, r22
    11a2:	dc 01       	movw	r26, r24
    11a4:	8d 91       	ld	r24, X+
    11a6:	01 90       	ld	r0, Z+
    11a8:	80 19       	sub	r24, r0
    11aa:	01 10       	cpse	r0, r1
    11ac:	d9 f3       	breq	.-10     	; 0x11a4 <strcmp+0x4>
    11ae:	99 0b       	sbc	r25, r25
    11b0:	08 95       	ret

000011b2 <_exit>:
    11b2:	f8 94       	cli

000011b4 <__stop_program>:
    11b4:	ff cf       	rjmp	.-2      	; 0x11b4 <__stop_program>
